
../target/armv6zk-none-eabihf/release/pi-side:     file format elf32-littlearm


Disassembly of section .text:

00008000 <_start>:
    8000:	e10f0000 	mrs	r0, CPSR
    8004:	e3c0001f 	bic	r0, r0, #31
    8008:	e3800013 	orr	r0, r0, #19
    800c:	e38000c0 	orr	r0, r0, #192	@ 0xc0
    8010:	e129f000 	msr	CPSR_fc, r0
    8014:	e3a00000 	mov	r0, #0
    8018:	ee070f95 	mcr	15, 0, r0, cr7, cr5, {4}
    801c:	e3a00000 	mov	r0, #0
    8020:	e59f1028 	ldr	r1, [pc, #40]	@ 8050 <_start+0x50>
    8024:	e59f2028 	ldr	r2, [pc, #40]	@ 8054 <_start+0x54>
    8028:	e0522001 	subs	r2, r2, r1
    802c:	0a000002 	beq	803c <_start+0x3c>
    8030:	e4c10001 	strb	r0, [r1], #1
    8034:	e2522001 	subs	r2, r2, #1
    8038:	1afffffc 	bne	8030 <_start+0x30>
    803c:	e59fd014 	ldr	sp, [pc, #20]	@ 8058 <_start+0x58>
    8040:	e3cdd00f 	bic	sp, sp, #15
    8044:	e3a0b000 	mov	fp, #0
    8048:	eb004357 	bl	18dac <_RNvNtNtCscA5RF7Ru5It_7pi_side4boot5start14___kernel_start>
    804c:	eb004361 	bl	18dd8 <_RNvNtNtCscA5RF7Ru5It_7pi_side5utils8watchdog7restart>
    8050:	03c50898 	.word	0x03c50898
    8054:	03c508b8 	.word	0x03c508b8
    8058:	08000000 	.word	0x08000000

0000805c <_RINvXse_NtCsimG8iQ5CXkH_3nom8internalNvNtNtCscA5RF7Ru5It_7pi_side8language5parse11parse_minusINtB6_6ParserReE7processINtB6_7OutputMNtB6_4EmitB25_NtB6_9StreamingEEBF_>:
    805c:	e92d4bf0 	push	{r4, r5, r6, r7, r8, r9, fp, lr}
    8060:	e24dd008 	sub	sp, sp, #8
    8064:	e3a0501d 	mov	r5, #29
    8068:	e3520000 	cmp	r2, #0
    806c:	0a000074 	beq	8244 <_RINvXse_NtCsimG8iQ5CXkH_3nom8internalNvNtNtCscA5RF7Ru5It_7pi_side8language5parse11parse_minusINtB6_6ParserReE7processINtB6_7OutputMNtB6_4EmitB25_NtB6_9StreamingEEBF_+0x1e8>
    8070:	e1d170d0 	ldrsb	r7, [r1]
    8074:	e3770001 	cmn	r7, #1
    8078:	e6ef3077 	uxtb	r3, r7
    807c:	ca000012 	bgt	80cc <_RINvXse_NtCsimG8iQ5CXkH_3nom8internalNvNtNtCscA5RF7Ru5It_7pi_side8language5parse11parse_minusINtB6_6ParserReE7processINtB6_7OutputMNtB6_4EmitB25_NtB6_9StreamingEEBF_+0x70>
    8080:	e5d16001 	ldrb	r6, [r1, #1]
    8084:	e203701f 	and	r7, r3, #31
    8088:	e35300e0 	cmp	r3, #224	@ 0xe0
    808c:	e206603f 	and	r6, r6, #63	@ 0x3f
    8090:	3a00000c 	bcc	80c8 <_RINvXse_NtCsimG8iQ5CXkH_3nom8internalNvNtNtCscA5RF7Ru5It_7pi_side8language5parse11parse_minusINtB6_6ParserReE7processINtB6_7OutputMNtB6_4EmitB25_NtB6_9StreamingEEBF_+0x6c>
    8094:	e5d14002 	ldrb	r4, [r1, #2]
    8098:	e35300f0 	cmp	r3, #240	@ 0xf0
    809c:	e204403f 	and	r4, r4, #63	@ 0x3f
    80a0:	e1846306 	orr	r6, r4, r6, lsl #6
    80a4:	3a000032 	bcc	8174 <_RINvXse_NtCsimG8iQ5CXkH_3nom8internalNvNtNtCscA5RF7Ru5It_7pi_side8language5parse11parse_minusINtB6_6ParserReE7processINtB6_7OutputMNtB6_4EmitB25_NtB6_9StreamingEEBF_+0x118>
    80a8:	e5d13003 	ldrb	r3, [r1, #3]
    80ac:	e2077007 	and	r7, r7, #7
    80b0:	e203303f 	and	r3, r3, #63	@ 0x3f
    80b4:	e1833306 	orr	r3, r3, r6, lsl #6
    80b8:	e1833907 	orr	r3, r3, r7, lsl #18
    80bc:	e353002d 	cmp	r3, #45	@ 0x2d
    80c0:	0a000003 	beq	80d4 <_RINvXse_NtCsimG8iQ5CXkH_3nom8internalNvNtNtCscA5RF7Ru5It_7pi_side8language5parse11parse_minusINtB6_6ParserReE7processINtB6_7OutputMNtB6_4EmitB25_NtB6_9StreamingEEBF_+0x78>
    80c4:	ea00005e 	b	8244 <_RINvXse_NtCsimG8iQ5CXkH_3nom8internalNvNtNtCscA5RF7Ru5It_7pi_side8language5parse11parse_minusINtB6_6ParserReE7processINtB6_7OutputMNtB6_4EmitB25_NtB6_9StreamingEEBF_+0x1e8>
    80c8:	e1863307 	orr	r3, r6, r7, lsl #6
    80cc:	e353002d 	cmp	r3, #45	@ 0x2d
    80d0:	1a00005b 	bne	8244 <_RINvXse_NtCsimG8iQ5CXkH_3nom8internalNvNtNtCscA5RF7Ru5It_7pi_side8language5parse11parse_minusINtB6_6ParserReE7processINtB6_7OutputMNtB6_4EmitB25_NtB6_9StreamingEEBF_+0x1e8>
    80d4:	e2816001 	add	r6, r1, #1
    80d8:	e3a03000 	mov	r3, #0
    80dc:	e3520001 	cmp	r2, #1
    80e0:	1a000008 	bne	8108 <_RINvXse_NtCsimG8iQ5CXkH_3nom8internalNvNtNtCscA5RF7Ru5It_7pi_side8language5parse11parse_minusINtB6_6ParserReE7processINtB6_7OutputMNtB6_4EmitB25_NtB6_9StreamingEEBF_+0xac>
    80e4:	e3a01001 	mov	r1, #1
    80e8:	e5806000 	str	r6, [r0]
    80ec:	e580100c 	str	r1, [r0, #12]
    80f0:	e3a01003 	mov	r1, #3
    80f4:	e3811c16 	orr	r1, r1, #5632	@ 0x1600
    80f8:	e1c010b8 	strh	r1, [r0, #8]
    80fc:	e5803004 	str	r3, [r0, #4]
    8100:	e28dd008 	add	sp, sp, #8
    8104:	e8bd8bf0 	pop	{r4, r5, r6, r7, r8, r9, fp, pc}
    8108:	e1d630d0 	ldrsb	r3, [r6]
    810c:	e3730041 	cmn	r3, #65	@ 0x41
    8110:	da000053 	ble	8264 <_RINvXse_NtCsimG8iQ5CXkH_3nom8internalNvNtNtCscA5RF7Ru5It_7pi_side8language5parse11parse_minusINtB6_6ParserReE7processINtB6_7OutputMNtB6_4EmitB25_NtB6_9StreamingEEBF_+0x208>
    8114:	e6ef4073 	uxtb	r4, r3
    8118:	e6af3074 	sxtb	r3, r4
    811c:	e3730001 	cmn	r3, #1
    8120:	ca000018 	bgt	8188 <_RINvXse_NtCsimG8iQ5CXkH_3nom8internalNvNtNtCscA5RF7Ru5It_7pi_side8language5parse11parse_minusINtB6_6ParserReE7processINtB6_7OutputMNtB6_4EmitB25_NtB6_9StreamingEEBF_+0x12c>
    8124:	e5d17002 	ldrb	r7, [r1, #2]
    8128:	e204301f 	and	r3, r4, #31
    812c:	e35400e0 	cmp	r4, #224	@ 0xe0
    8130:	e207703f 	and	r7, r7, #63	@ 0x3f
    8134:	3a000012 	bcc	8184 <_RINvXse_NtCsimG8iQ5CXkH_3nom8internalNvNtNtCscA5RF7Ru5It_7pi_side8language5parse11parse_minusINtB6_6ParserReE7processINtB6_7OutputMNtB6_4EmitB25_NtB6_9StreamingEEBF_+0x128>
    8138:	e5d15003 	ldrb	r5, [r1, #3]
    813c:	e35400f0 	cmp	r4, #240	@ 0xf0
    8140:	e205503f 	and	r5, r5, #63	@ 0x3f
    8144:	e1857307 	orr	r7, r5, r7, lsl #6
    8148:	3a00002a 	bcc	81f8 <_RINvXse_NtCsimG8iQ5CXkH_3nom8internalNvNtNtCscA5RF7Ru5It_7pi_side8language5parse11parse_minusINtB6_6ParserReE7processINtB6_7OutputMNtB6_4EmitB25_NtB6_9StreamingEEBF_+0x19c>
    814c:	e5d15004 	ldrb	r5, [r1, #4]
    8150:	e2033007 	and	r3, r3, #7
    8154:	e205503f 	and	r5, r5, #63	@ 0x3f
    8158:	e1857307 	orr	r7, r5, r7, lsl #6
    815c:	e1874903 	orr	r4, r7, r3, lsl #18
    8160:	e2443030 	sub	r3, r4, #48	@ 0x30
    8164:	e3a05034 	mov	r5, #52	@ 0x34
    8168:	e353000a 	cmp	r3, #10
    816c:	2a000009 	bcs	8198 <_RINvXse_NtCsimG8iQ5CXkH_3nom8internalNvNtNtCscA5RF7Ru5It_7pi_side8language5parse11parse_minusINtB6_6ParserReE7processINtB6_7OutputMNtB6_4EmitB25_NtB6_9StreamingEEBF_+0x13c>
    8170:	ea000033 	b	8244 <_RINvXse_NtCsimG8iQ5CXkH_3nom8internalNvNtNtCscA5RF7Ru5It_7pi_side8language5parse11parse_minusINtB6_6ParserReE7processINtB6_7OutputMNtB6_4EmitB25_NtB6_9StreamingEEBF_+0x1e8>
    8174:	e1863607 	orr	r3, r6, r7, lsl #12
    8178:	e353002d 	cmp	r3, #45	@ 0x2d
    817c:	0affffd4 	beq	80d4 <_RINvXse_NtCsimG8iQ5CXkH_3nom8internalNvNtNtCscA5RF7Ru5It_7pi_side8language5parse11parse_minusINtB6_6ParserReE7processINtB6_7OutputMNtB6_4EmitB25_NtB6_9StreamingEEBF_+0x78>
    8180:	ea00002f 	b	8244 <_RINvXse_NtCsimG8iQ5CXkH_3nom8internalNvNtNtCscA5RF7Ru5It_7pi_side8language5parse11parse_minusINtB6_6ParserReE7processINtB6_7OutputMNtB6_4EmitB25_NtB6_9StreamingEEBF_+0x1e8>
    8184:	e1874303 	orr	r4, r7, r3, lsl #6
    8188:	e2443030 	sub	r3, r4, #48	@ 0x30
    818c:	e3a05034 	mov	r5, #52	@ 0x34
    8190:	e353000a 	cmp	r3, #10
    8194:	3a00002a 	bcc	8244 <_RINvXse_NtCsimG8iQ5CXkH_3nom8internalNvNtNtCscA5RF7Ru5It_7pi_side8language5parse11parse_minusINtB6_6ParserReE7processINtB6_7OutputMNtB6_4EmitB25_NtB6_9StreamingEEBF_+0x1e8>
    8198:	e3c43020 	bic	r3, r4, #32
    819c:	e2433041 	sub	r3, r3, #65	@ 0x41
    81a0:	e353001a 	cmp	r3, #26
    81a4:	3a000026 	bcc	8244 <_RINvXse_NtCsimG8iQ5CXkH_3nom8internalNvNtNtCscA5RF7Ru5It_7pi_side8language5parse11parse_minusINtB6_6ParserReE7processINtB6_7OutputMNtB6_4EmitB25_NtB6_9StreamingEEBF_+0x1e8>
    81a8:	e35400aa 	cmp	r4, #170	@ 0xaa
    81ac:	2a000006 	bcs	81cc <_RINvXse_NtCsimG8iQ5CXkH_3nom8internalNvNtNtCscA5RF7Ru5It_7pi_side8language5parse11parse_minusINtB6_6ParserReE7processINtB6_7OutputMNtB6_4EmitB25_NtB6_9StreamingEEBF_+0x170>
    81b0:	e3540021 	cmp	r4, #33	@ 0x21
    81b4:	0a000022 	beq	8244 <_RINvXse_NtCsimG8iQ5CXkH_3nom8internalNvNtNtCscA5RF7Ru5It_7pi_side8language5parse11parse_minusINtB6_6ParserReE7processINtB6_7OutputMNtB6_4EmitB25_NtB6_9StreamingEEBF_+0x1e8>
    81b8:	e354003f 	cmp	r4, #63	@ 0x3f
    81bc:	1354005f 	cmpne	r4, #95	@ 0x5f
    81c0:	0a00001f 	beq	8244 <_RINvXse_NtCsimG8iQ5CXkH_3nom8internalNvNtNtCscA5RF7Ru5It_7pi_side8language5parse11parse_minusINtB6_6ParserReE7processINtB6_7OutputMNtB6_4EmitB25_NtB6_9StreamingEEBF_+0x1e8>
    81c4:	e2423001 	sub	r3, r2, #1
    81c8:	eaffffc5 	b	80e4 <_RINvXse_NtCsimG8iQ5CXkH_3nom8internalNvNtNtCscA5RF7Ru5It_7pi_side8language5parse11parse_minusINtB6_6ParserReE7processINtB6_7OutputMNtB6_4EmitB25_NtB6_9StreamingEEBF_+0x88>
    81cc:	e1a08000 	mov	r8, r0
    81d0:	e1a00004 	mov	r0, r4
    81d4:	e1a09001 	mov	r9, r1
    81d8:	e1a07002 	mov	r7, r2
    81dc:	eb005967 	bl	1e780 <_RNvNtNtNtCs5HYdw2IoCB0_4core7unicode12unicode_data10alphabetic11lookup_slow>
    81e0:	e3500000 	cmp	r0, #0
    81e4:	0a000009 	beq	8210 <_RINvXse_NtCsimG8iQ5CXkH_3nom8internalNvNtNtCscA5RF7Ru5It_7pi_side8language5parse11parse_minusINtB6_6ParserReE7processINtB6_7OutputMNtB6_4EmitB25_NtB6_9StreamingEEBF_+0x1b4>
    81e8:	e1a02007 	mov	r2, r7
    81ec:	e1a00008 	mov	r0, r8
    81f0:	e1a01009 	mov	r1, r9
    81f4:	ea000012 	b	8244 <_RINvXse_NtCsimG8iQ5CXkH_3nom8internalNvNtNtCscA5RF7Ru5It_7pi_side8language5parse11parse_minusINtB6_6ParserReE7processINtB6_7OutputMNtB6_4EmitB25_NtB6_9StreamingEEBF_+0x1e8>
    81f8:	e1874603 	orr	r4, r7, r3, lsl #12
    81fc:	e2443030 	sub	r3, r4, #48	@ 0x30
    8200:	e3a05034 	mov	r5, #52	@ 0x34
    8204:	e353000a 	cmp	r3, #10
    8208:	2affffe2 	bcs	8198 <_RINvXse_NtCsimG8iQ5CXkH_3nom8internalNvNtNtCscA5RF7Ru5It_7pi_side8language5parse11parse_minusINtB6_6ParserReE7processINtB6_7OutputMNtB6_4EmitB25_NtB6_9StreamingEEBF_+0x13c>
    820c:	ea00000c 	b	8244 <_RINvXse_NtCsimG8iQ5CXkH_3nom8internalNvNtNtCscA5RF7Ru5It_7pi_side8language5parse11parse_minusINtB6_6ParserReE7processINtB6_7OutputMNtB6_4EmitB25_NtB6_9StreamingEEBF_+0x1e8>
    8210:	e1a02007 	mov	r2, r7
    8214:	e1a00008 	mov	r0, r8
    8218:	e1a01009 	mov	r1, r9
    821c:	e35400b2 	cmp	r4, #178	@ 0xb2
    8220:	3affffe2 	bcc	81b0 <_RINvXse_NtCsimG8iQ5CXkH_3nom8internalNvNtNtCscA5RF7Ru5It_7pi_side8language5parse11parse_minusINtB6_6ParserReE7processINtB6_7OutputMNtB6_4EmitB25_NtB6_9StreamingEEBF_+0x154>
    8224:	e1a00004 	mov	r0, r4
    8228:	eb006027 	bl	202cc <_RNvNtNtNtCs5HYdw2IoCB0_4core7unicode12unicode_data1n11lookup_slow>
    822c:	e1a03000 	mov	r3, r0
    8230:	e1a01009 	mov	r1, r9
    8234:	e1a02007 	mov	r2, r7
    8238:	e1a00008 	mov	r0, r8
    823c:	e3530000 	cmp	r3, #0
    8240:	0affffda 	beq	81b0 <_RINvXse_NtCsimG8iQ5CXkH_3nom8internalNvNtNtCscA5RF7Ru5It_7pi_side8language5parse11parse_minusINtB6_6ParserReE7processINtB6_7OutputMNtB6_4EmitB25_NtB6_9StreamingEEBF_+0x154>
    8244:	e3a03001 	mov	r3, #1
    8248:	e3a070ff 	mov	r7, #255	@ 0xff
    824c:	e5c07008 	strb	r7, [r0, #8]
    8250:	e580300c 	str	r3, [r0, #12]
    8254:	e2800010 	add	r0, r0, #16
    8258:	e8800026 	stm	r0, {r1, r2, r5}
    825c:	e28dd008 	add	sp, sp, #8
    8260:	e8bd8bf0 	pop	{r4, r5, r6, r7, r8, r9, fp, pc}
    8264:	e59f0014 	ldr	r0, [pc, #20]	@ 8280 <_RINvXse_NtCsimG8iQ5CXkH_3nom8internalNvNtNtCscA5RF7Ru5It_7pi_side8language5parse11parse_minusINtB6_6ParserReE7processINtB6_7OutputMNtB6_4EmitB25_NtB6_9StreamingEEBF_+0x224>
    8268:	e1a03002 	mov	r3, r2
    826c:	e58d0000 	str	r0, [sp]
    8270:	e1a00001 	mov	r0, r1
    8274:	e1a01002 	mov	r1, r2
    8278:	e3a02001 	mov	r2, #1
    827c:	eb005eb7 	bl	1fd60 <_RNvNtCs5HYdw2IoCB0_4core3str16slice_error_fail>
    8280:	000224fc 	.word	0x000224fc

00008284 <_RINvXse_NtCsimG8iQ5CXkH_3nom8internalNvNtNtCscA5RF7Ru5It_7pi_side8language5parse14parse_operatorINtB6_6ParserReE7processINtB6_7OutputMNtB6_4EmitB28_NtB6_9StreamingEEBF_>:
    8284:	e92d4bf0 	push	{r4, r5, r6, r7, r8, r9, fp, lr}
    8288:	e24dd008 	sub	sp, sp, #8
    828c:	e3520002 	cmp	r2, #2
    8290:	2a000018 	bcs	82f8 <_RINvXse_NtCsimG8iQ5CXkH_3nom8internalNvNtNtCscA5RF7Ru5It_7pi_side8language5parse14parse_operatorINtB6_6ParserReE7processINtB6_7OutputMNtB6_4EmitB28_NtB6_9StreamingEEBF_+0x74>
    8294:	e3520000 	cmp	r2, #0
    8298:	0a000156 	beq	87f8 <_RINvXse_NtCsimG8iQ5CXkH_3nom8internalNvNtNtCscA5RF7Ru5It_7pi_side8language5parse14parse_operatorINtB6_6ParserReE7processINtB6_7OutputMNtB6_4EmitB28_NtB6_9StreamingEEBF_+0x574>
    829c:	e1d170d0 	ldrsb	r7, [r1]
    82a0:	e3770001 	cmn	r7, #1
    82a4:	e6ef3077 	uxtb	r3, r7
    82a8:	ca000053 	bgt	83fc <_RINvXse_NtCsimG8iQ5CXkH_3nom8internalNvNtNtCscA5RF7Ru5It_7pi_side8language5parse14parse_operatorINtB6_6ParserReE7processINtB6_7OutputMNtB6_4EmitB28_NtB6_9StreamingEEBF_+0x178>
    82ac:	e5d16001 	ldrb	r6, [r1, #1]
    82b0:	e203701f 	and	r7, r3, #31
    82b4:	e35300e0 	cmp	r3, #224	@ 0xe0
    82b8:	e206603f 	and	r6, r6, #63	@ 0x3f
    82bc:	3a00004d 	bcc	83f8 <_RINvXse_NtCsimG8iQ5CXkH_3nom8internalNvNtNtCscA5RF7Ru5It_7pi_side8language5parse14parse_operatorINtB6_6ParserReE7processINtB6_7OutputMNtB6_4EmitB28_NtB6_9StreamingEEBF_+0x174>
    82c0:	e5d15002 	ldrb	r5, [r1, #2]
    82c4:	e35300f0 	cmp	r3, #240	@ 0xf0
    82c8:	e205503f 	and	r5, r5, #63	@ 0x3f
    82cc:	e1856306 	orr	r6, r5, r6, lsl #6
    82d0:	3a000124 	bcc	8768 <_RINvXse_NtCsimG8iQ5CXkH_3nom8internalNvNtNtCscA5RF7Ru5It_7pi_side8language5parse14parse_operatorINtB6_6ParserReE7processINtB6_7OutputMNtB6_4EmitB28_NtB6_9StreamingEEBF_+0x4e4>
    82d4:	e5d13003 	ldrb	r3, [r1, #3]
    82d8:	e2077007 	and	r7, r7, #7
    82dc:	e203303f 	and	r3, r3, #63	@ 0x3f
    82e0:	e1833306 	orr	r3, r3, r6, lsl #6
    82e4:	e1833907 	orr	r3, r3, r7, lsl #18
    82e8:	e2436025 	sub	r6, r3, #37	@ 0x25
    82ec:	e3560059 	cmp	r6, #89	@ 0x59
    82f0:	9a000044 	bls	8408 <_RINvXse_NtCsimG8iQ5CXkH_3nom8internalNvNtNtCscA5RF7Ru5It_7pi_side8language5parse14parse_operatorINtB6_6ParserReE7processINtB6_7OutputMNtB6_4EmitB28_NtB6_9StreamingEEBF_+0x184>
    82f4:	ea00013f 	b	87f8 <_RINvXse_NtCsimG8iQ5CXkH_3nom8internalNvNtNtCscA5RF7Ru5It_7pi_side8language5parse14parse_operatorINtB6_6ParserReE7processINtB6_7OutputMNtB6_4EmitB28_NtB6_9StreamingEEBF_+0x574>
    82f8:	e5d17001 	ldrb	r7, [r1, #1]
    82fc:	e5d13000 	ldrb	r3, [r1]
    8300:	e1833407 	orr	r3, r3, r7, lsl #8
    8304:	e3a0703e 	mov	r7, #62	@ 0x3e
    8308:	e3877c3d 	orr	r7, r7, #15616	@ 0x3d00
    830c:	e1530007 	cmp	r3, r7
    8310:	0a00001d 	beq	838c <_RINvXse_NtCsimG8iQ5CXkH_3nom8internalNvNtNtCscA5RF7Ru5It_7pi_side8language5parse14parse_operatorINtB6_6ParserReE7processINtB6_7OutputMNtB6_4EmitB28_NtB6_9StreamingEEBF_+0x108>
    8314:	e5d17001 	ldrb	r7, [r1, #1]
    8318:	e5d13000 	ldrb	r3, [r1]
    831c:	e1833407 	orr	r3, r3, r7, lsl #8
    8320:	e3a07f4f 	mov	r7, #316	@ 0x13c
    8324:	e3877b0f 	orr	r7, r7, #15360	@ 0x3c00
    8328:	e1530007 	cmp	r3, r7
    832c:	0a00001f 	beq	83b0 <_RINvXse_NtCsimG8iQ5CXkH_3nom8internalNvNtNtCscA5RF7Ru5It_7pi_side8language5parse14parse_operatorINtB6_6ParserReE7processINtB6_7OutputMNtB6_4EmitB28_NtB6_9StreamingEEBF_+0x12c>
    8330:	e5d17001 	ldrb	r7, [r1, #1]
    8334:	e5d13000 	ldrb	r3, [r1]
    8338:	e1833407 	orr	r3, r3, r7, lsl #8
    833c:	e3a0703c 	mov	r7, #60	@ 0x3c
    8340:	e3877b0f 	orr	r7, r7, #15360	@ 0x3c00
    8344:	e1530007 	cmp	r3, r7
    8348:	0a000021 	beq	83d4 <_RINvXse_NtCsimG8iQ5CXkH_3nom8internalNvNtNtCscA5RF7Ru5It_7pi_side8language5parse14parse_operatorINtB6_6ParserReE7processINtB6_7OutputMNtB6_4EmitB28_NtB6_9StreamingEEBF_+0x150>
    834c:	e5d17001 	ldrb	r7, [r1, #1]
    8350:	e5d13000 	ldrb	r3, [r1]
    8354:	e1833407 	orr	r3, r3, r7, lsl #8
    8358:	e3a0703e 	mov	r7, #62	@ 0x3e
    835c:	e3877c3e 	orr	r7, r7, #15872	@ 0x3e00
    8360:	e1530007 	cmp	r3, r7
    8364:	1affffcc 	bne	829c <_RINvXse_NtCsimG8iQ5CXkH_3nom8internalNvNtNtCscA5RF7Ru5It_7pi_side8language5parse14parse_operatorINtB6_6ParserReE7processINtB6_7OutputMNtB6_4EmitB28_NtB6_9StreamingEEBF_+0x18>
    8368:	e3520002 	cmp	r2, #2
    836c:	0a000002 	beq	837c <_RINvXse_NtCsimG8iQ5CXkH_3nom8internalNvNtNtCscA5RF7Ru5It_7pi_side8language5parse14parse_operatorINtB6_6ParserReE7processINtB6_7OutputMNtB6_4EmitB28_NtB6_9StreamingEEBF_+0xf8>
    8370:	e1d130d2 	ldrsb	r3, [r1, #2]
    8374:	e3730041 	cmn	r3, #65	@ 0x41
    8378:	da000158 	ble	88e0 <_RINvXse_NtCsimG8iQ5CXkH_3nom8internalNvNtNtCscA5RF7Ru5It_7pi_side8language5parse14parse_operatorINtB6_6ParserReE7processINtB6_7OutputMNtB6_4EmitB28_NtB6_9StreamingEEBF_+0x65c>
    837c:	e2815002 	add	r5, r1, #2
    8380:	e2423002 	sub	r3, r2, #2
    8384:	e3a01020 	mov	r1, #32
    8388:	ea00010a 	b	87b8 <_RINvXse_NtCsimG8iQ5CXkH_3nom8internalNvNtNtCscA5RF7Ru5It_7pi_side8language5parse14parse_operatorINtB6_6ParserReE7processINtB6_7OutputMNtB6_4EmitB28_NtB6_9StreamingEEBF_+0x534>
    838c:	e3520002 	cmp	r2, #2
    8390:	0a000002 	beq	83a0 <_RINvXse_NtCsimG8iQ5CXkH_3nom8internalNvNtNtCscA5RF7Ru5It_7pi_side8language5parse14parse_operatorINtB6_6ParserReE7processINtB6_7OutputMNtB6_4EmitB28_NtB6_9StreamingEEBF_+0x11c>
    8394:	e1d130d2 	ldrsb	r3, [r1, #2]
    8398:	e3730041 	cmn	r3, #65	@ 0x41
    839c:	da000149 	ble	88c8 <_RINvXse_NtCsimG8iQ5CXkH_3nom8internalNvNtNtCscA5RF7Ru5It_7pi_side8language5parse14parse_operatorINtB6_6ParserReE7processINtB6_7OutputMNtB6_4EmitB28_NtB6_9StreamingEEBF_+0x644>
    83a0:	e2815002 	add	r5, r1, #2
    83a4:	e2423002 	sub	r3, r2, #2
    83a8:	e3a01013 	mov	r1, #19
    83ac:	ea000101 	b	87b8 <_RINvXse_NtCsimG8iQ5CXkH_3nom8internalNvNtNtCscA5RF7Ru5It_7pi_side8language5parse14parse_operatorINtB6_6ParserReE7processINtB6_7OutputMNtB6_4EmitB28_NtB6_9StreamingEEBF_+0x534>
    83b0:	e3520002 	cmp	r2, #2
    83b4:	0a000002 	beq	83c4 <_RINvXse_NtCsimG8iQ5CXkH_3nom8internalNvNtNtCscA5RF7Ru5It_7pi_side8language5parse14parse_operatorINtB6_6ParserReE7processINtB6_7OutputMNtB6_4EmitB28_NtB6_9StreamingEEBF_+0x140>
    83b8:	e1d130d2 	ldrsb	r3, [r1, #2]
    83bc:	e3730041 	cmn	r3, #65	@ 0x41
    83c0:	da000142 	ble	88d0 <_RINvXse_NtCsimG8iQ5CXkH_3nom8internalNvNtNtCscA5RF7Ru5It_7pi_side8language5parse14parse_operatorINtB6_6ParserReE7processINtB6_7OutputMNtB6_4EmitB28_NtB6_9StreamingEEBF_+0x64c>
    83c4:	e2815002 	add	r5, r1, #2
    83c8:	e2423002 	sub	r3, r2, #2
    83cc:	e3a01014 	mov	r1, #20
    83d0:	ea0000f8 	b	87b8 <_RINvXse_NtCsimG8iQ5CXkH_3nom8internalNvNtNtCscA5RF7Ru5It_7pi_side8language5parse14parse_operatorINtB6_6ParserReE7processINtB6_7OutputMNtB6_4EmitB28_NtB6_9StreamingEEBF_+0x534>
    83d4:	e3520002 	cmp	r2, #2
    83d8:	0a000002 	beq	83e8 <_RINvXse_NtCsimG8iQ5CXkH_3nom8internalNvNtNtCscA5RF7Ru5It_7pi_side8language5parse14parse_operatorINtB6_6ParserReE7processINtB6_7OutputMNtB6_4EmitB28_NtB6_9StreamingEEBF_+0x164>
    83dc:	e1d130d2 	ldrsb	r3, [r1, #2]
    83e0:	e3730041 	cmn	r3, #65	@ 0x41
    83e4:	da00013b 	ble	88d8 <_RINvXse_NtCsimG8iQ5CXkH_3nom8internalNvNtNtCscA5RF7Ru5It_7pi_side8language5parse14parse_operatorINtB6_6ParserReE7processINtB6_7OutputMNtB6_4EmitB28_NtB6_9StreamingEEBF_+0x654>
    83e8:	e2815002 	add	r5, r1, #2
    83ec:	e2423002 	sub	r3, r2, #2
    83f0:	e3a0101f 	mov	r1, #31
    83f4:	ea0000ef 	b	87b8 <_RINvXse_NtCsimG8iQ5CXkH_3nom8internalNvNtNtCscA5RF7Ru5It_7pi_side8language5parse14parse_operatorINtB6_6ParserReE7processINtB6_7OutputMNtB6_4EmitB28_NtB6_9StreamingEEBF_+0x534>
    83f8:	e1863307 	orr	r3, r6, r7, lsl #6
    83fc:	e2436025 	sub	r6, r3, #37	@ 0x25
    8400:	e3560059 	cmp	r6, #89	@ 0x59
    8404:	8a0000fb 	bhi	87f8 <_RINvXse_NtCsimG8iQ5CXkH_3nom8internalNvNtNtCscA5RF7Ru5It_7pi_side8language5parse14parse_operatorINtB6_6ParserReE7processINtB6_7OutputMNtB6_4EmitB28_NtB6_9StreamingEEBF_+0x574>
    8408:	e28f3000 	add	r3, pc, #0
    840c:	e793f106 	ldr	pc, [r3, r6, lsl #2]
    8410:	00008578 	.word	0x00008578
    8414:	00008578 	.word	0x00008578
    8418:	000087f8 	.word	0x000087f8
    841c:	000087f8 	.word	0x000087f8
    8420:	000087f8 	.word	0x000087f8
    8424:	00008578 	.word	0x00008578
    8428:	00008578 	.word	0x00008578
    842c:	000087f8 	.word	0x000087f8
    8430:	000087f8 	.word	0x000087f8
    8434:	000087f8 	.word	0x000087f8
    8438:	00008578 	.word	0x00008578
    843c:	000087f8 	.word	0x000087f8
    8440:	000087f8 	.word	0x000087f8
    8444:	000087f8 	.word	0x000087f8
    8448:	000087f8 	.word	0x000087f8
    844c:	000087f8 	.word	0x000087f8
    8450:	000087f8 	.word	0x000087f8
    8454:	000087f8 	.word	0x000087f8
    8458:	000087f8 	.word	0x000087f8
    845c:	000087f8 	.word	0x000087f8
    8460:	000087f8 	.word	0x000087f8
    8464:	000087f8 	.word	0x000087f8
    8468:	000087f8 	.word	0x000087f8
    846c:	00008578 	.word	0x00008578
    8470:	000087f8 	.word	0x000087f8
    8474:	00008578 	.word	0x00008578
    8478:	000087f8 	.word	0x000087f8
    847c:	000087f8 	.word	0x000087f8
    8480:	000087f8 	.word	0x000087f8
    8484:	000087f8 	.word	0x000087f8
    8488:	000087f8 	.word	0x000087f8
    848c:	000087f8 	.word	0x000087f8
    8490:	000087f8 	.word	0x000087f8
    8494:	000087f8 	.word	0x000087f8
    8498:	000087f8 	.word	0x000087f8
    849c:	000087f8 	.word	0x000087f8
    84a0:	000087f8 	.word	0x000087f8
    84a4:	000087f8 	.word	0x000087f8
    84a8:	000087f8 	.word	0x000087f8
    84ac:	000087f8 	.word	0x000087f8
    84b0:	000087f8 	.word	0x000087f8
    84b4:	000087f8 	.word	0x000087f8
    84b8:	000087f8 	.word	0x000087f8
    84bc:	000087f8 	.word	0x000087f8
    84c0:	000087f8 	.word	0x000087f8
    84c4:	000087f8 	.word	0x000087f8
    84c8:	000087f8 	.word	0x000087f8
    84cc:	000087f8 	.word	0x000087f8
    84d0:	000087f8 	.word	0x000087f8
    84d4:	000087f8 	.word	0x000087f8
    84d8:	000087f8 	.word	0x000087f8
    84dc:	000087f8 	.word	0x000087f8
    84e0:	000087f8 	.word	0x000087f8
    84e4:	000087f8 	.word	0x000087f8
    84e8:	000087f8 	.word	0x000087f8
    84ec:	000087f8 	.word	0x000087f8
    84f0:	000087f8 	.word	0x000087f8
    84f4:	000087f8 	.word	0x000087f8
    84f8:	000087f8 	.word	0x000087f8
    84fc:	000087f8 	.word	0x000087f8
    8500:	000087f8 	.word	0x000087f8
    8504:	000087f8 	.word	0x000087f8
    8508:	000087f8 	.word	0x000087f8
    850c:	000087f8 	.word	0x000087f8
    8510:	000087f8 	.word	0x000087f8
    8514:	000087f8 	.word	0x000087f8
    8518:	000087f8 	.word	0x000087f8
    851c:	000087f8 	.word	0x000087f8
    8520:	000087f8 	.word	0x000087f8
    8524:	000087f8 	.word	0x000087f8
    8528:	000087f8 	.word	0x000087f8
    852c:	000087f8 	.word	0x000087f8
    8530:	000087f8 	.word	0x000087f8
    8534:	000087f8 	.word	0x000087f8
    8538:	000087f8 	.word	0x000087f8
    853c:	000087f8 	.word	0x000087f8
    8540:	000087f8 	.word	0x000087f8
    8544:	000087f8 	.word	0x000087f8
    8548:	000087f8 	.word	0x000087f8
    854c:	000087f8 	.word	0x000087f8
    8550:	000087f8 	.word	0x000087f8
    8554:	000087f8 	.word	0x000087f8
    8558:	000087f8 	.word	0x000087f8
    855c:	000087f8 	.word	0x000087f8
    8560:	000087f8 	.word	0x000087f8
    8564:	000087f8 	.word	0x000087f8
    8568:	000087f8 	.word	0x000087f8
    856c:	00008578 	.word	0x00008578
    8570:	000087f8 	.word	0x000087f8
    8574:	00008578 	.word	0x00008578
    8578:	e2815001 	add	r5, r1, #1
    857c:	e3a03000 	mov	r3, #0
    8580:	e3520001 	cmp	r2, #1
    8584:	1a000060 	bne	870c <_RINvXse_NtCsimG8iQ5CXkH_3nom8internalNvNtNtCscA5RF7Ru5It_7pi_side8language5parse14parse_operatorINtB6_6ParserReE7processINtB6_7OutputMNtB6_4EmitB28_NtB6_9StreamingEEBF_+0x488>
    8588:	e3560059 	cmp	r6, #89	@ 0x59
    858c:	8a0000ac 	bhi	8844 <_RINvXse_NtCsimG8iQ5CXkH_3nom8internalNvNtNtCscA5RF7Ru5It_7pi_side8language5parse14parse_operatorINtB6_6ParserReE7processINtB6_7OutputMNtB6_4EmitB28_NtB6_9StreamingEEBF_+0x5c0>
    8590:	e28f2004 	add	r2, pc, #4
    8594:	e3a01015 	mov	r1, #21
    8598:	e792f106 	ldr	pc, [r2, r6, lsl #2]
    859c:	00008704 	.word	0x00008704
    85a0:	0000879c 	.word	0x0000879c
    85a4:	00008844 	.word	0x00008844
    85a8:	00008844 	.word	0x00008844
    85ac:	00008844 	.word	0x00008844
    85b0:	000087ac 	.word	0x000087ac
    85b4:	000087b8 	.word	0x000087b8
    85b8:	00008844 	.word	0x00008844
    85bc:	00008844 	.word	0x00008844
    85c0:	00008844 	.word	0x00008844
    85c4:	00008794 	.word	0x00008794
    85c8:	00008844 	.word	0x00008844
    85cc:	00008844 	.word	0x00008844
    85d0:	00008844 	.word	0x00008844
    85d4:	00008844 	.word	0x00008844
    85d8:	00008844 	.word	0x00008844
    85dc:	00008844 	.word	0x00008844
    85e0:	00008844 	.word	0x00008844
    85e4:	00008844 	.word	0x00008844
    85e8:	00008844 	.word	0x00008844
    85ec:	00008844 	.word	0x00008844
    85f0:	00008844 	.word	0x00008844
    85f4:	00008844 	.word	0x00008844
    85f8:	0000878c 	.word	0x0000878c
    85fc:	00008844 	.word	0x00008844
    8600:	000087a4 	.word	0x000087a4
    8604:	00008844 	.word	0x00008844
    8608:	00008844 	.word	0x00008844
    860c:	00008844 	.word	0x00008844
    8610:	00008844 	.word	0x00008844
    8614:	00008844 	.word	0x00008844
    8618:	00008844 	.word	0x00008844
    861c:	00008844 	.word	0x00008844
    8620:	00008844 	.word	0x00008844
    8624:	00008844 	.word	0x00008844
    8628:	00008844 	.word	0x00008844
    862c:	00008844 	.word	0x00008844
    8630:	00008844 	.word	0x00008844
    8634:	00008844 	.word	0x00008844
    8638:	00008844 	.word	0x00008844
    863c:	00008844 	.word	0x00008844
    8640:	00008844 	.word	0x00008844
    8644:	00008844 	.word	0x00008844
    8648:	00008844 	.word	0x00008844
    864c:	00008844 	.word	0x00008844
    8650:	00008844 	.word	0x00008844
    8654:	00008844 	.word	0x00008844
    8658:	00008844 	.word	0x00008844
    865c:	00008844 	.word	0x00008844
    8660:	00008844 	.word	0x00008844
    8664:	00008844 	.word	0x00008844
    8668:	00008844 	.word	0x00008844
    866c:	00008844 	.word	0x00008844
    8670:	00008844 	.word	0x00008844
    8674:	00008844 	.word	0x00008844
    8678:	00008844 	.word	0x00008844
    867c:	00008844 	.word	0x00008844
    8680:	00008844 	.word	0x00008844
    8684:	00008844 	.word	0x00008844
    8688:	00008844 	.word	0x00008844
    868c:	00008844 	.word	0x00008844
    8690:	00008844 	.word	0x00008844
    8694:	00008844 	.word	0x00008844
    8698:	00008844 	.word	0x00008844
    869c:	00008844 	.word	0x00008844
    86a0:	00008844 	.word	0x00008844
    86a4:	00008844 	.word	0x00008844
    86a8:	00008844 	.word	0x00008844
    86ac:	00008844 	.word	0x00008844
    86b0:	00008844 	.word	0x00008844
    86b4:	00008844 	.word	0x00008844
    86b8:	00008844 	.word	0x00008844
    86bc:	00008844 	.word	0x00008844
    86c0:	00008844 	.word	0x00008844
    86c4:	00008844 	.word	0x00008844
    86c8:	00008844 	.word	0x00008844
    86cc:	00008844 	.word	0x00008844
    86d0:	00008844 	.word	0x00008844
    86d4:	00008844 	.word	0x00008844
    86d8:	00008844 	.word	0x00008844
    86dc:	00008844 	.word	0x00008844
    86e0:	00008844 	.word	0x00008844
    86e4:	00008844 	.word	0x00008844
    86e8:	00008844 	.word	0x00008844
    86ec:	00008844 	.word	0x00008844
    86f0:	00008844 	.word	0x00008844
    86f4:	00008844 	.word	0x00008844
    86f8:	00008784 	.word	0x00008784
    86fc:	00008844 	.word	0x00008844
    8700:	000087b4 	.word	0x000087b4
    8704:	e3a01021 	mov	r1, #33	@ 0x21
    8708:	ea00002a 	b	87b8 <_RINvXse_NtCsimG8iQ5CXkH_3nom8internalNvNtNtCscA5RF7Ru5It_7pi_side8language5parse14parse_operatorINtB6_6ParserReE7processINtB6_7OutputMNtB6_4EmitB28_NtB6_9StreamingEEBF_+0x534>
    870c:	e1d530d0 	ldrsb	r3, [r5]
    8710:	e3730041 	cmn	r3, #65	@ 0x41
    8714:	da000064 	ble	88ac <_RINvXse_NtCsimG8iQ5CXkH_3nom8internalNvNtNtCscA5RF7Ru5It_7pi_side8language5parse14parse_operatorINtB6_6ParserReE7processINtB6_7OutputMNtB6_4EmitB28_NtB6_9StreamingEEBF_+0x628>
    8718:	e6ef4073 	uxtb	r4, r3
    871c:	e6af3074 	sxtb	r3, r4
    8720:	e3730001 	cmn	r3, #1
    8724:	ca00002d 	bgt	87e0 <_RINvXse_NtCsimG8iQ5CXkH_3nom8internalNvNtNtCscA5RF7Ru5It_7pi_side8language5parse14parse_operatorINtB6_6ParserReE7processINtB6_7OutputMNtB6_4EmitB28_NtB6_9StreamingEEBF_+0x55c>
    8728:	e5d17002 	ldrb	r7, [r1, #2]
    872c:	e204c01f 	and	ip, r4, #31
    8730:	e35400e0 	cmp	r4, #224	@ 0xe0
    8734:	e207703f 	and	r7, r7, #63	@ 0x3f
    8738:	3a00000f 	bcc	877c <_RINvXse_NtCsimG8iQ5CXkH_3nom8internalNvNtNtCscA5RF7Ru5It_7pi_side8language5parse14parse_operatorINtB6_6ParserReE7processINtB6_7OutputMNtB6_4EmitB28_NtB6_9StreamingEEBF_+0x4f8>
    873c:	e5d13003 	ldrb	r3, [r1, #3]
    8740:	e35400f0 	cmp	r4, #240	@ 0xf0
    8744:	e203303f 	and	r3, r3, #63	@ 0x3f
    8748:	e1837307 	orr	r7, r3, r7, lsl #6
    874c:	3a000022 	bcc	87dc <_RINvXse_NtCsimG8iQ5CXkH_3nom8internalNvNtNtCscA5RF7Ru5It_7pi_side8language5parse14parse_operatorINtB6_6ParserReE7processINtB6_7OutputMNtB6_4EmitB28_NtB6_9StreamingEEBF_+0x558>
    8750:	e5d13004 	ldrb	r3, [r1, #4]
    8754:	e203303f 	and	r3, r3, #63	@ 0x3f
    8758:	e1833307 	orr	r3, r3, r7, lsl #6
    875c:	e20c7007 	and	r7, ip, #7
    8760:	e1834907 	orr	r4, r3, r7, lsl #18
    8764:	ea00001d 	b	87e0 <_RINvXse_NtCsimG8iQ5CXkH_3nom8internalNvNtNtCscA5RF7Ru5It_7pi_side8language5parse14parse_operatorINtB6_6ParserReE7processINtB6_7OutputMNtB6_4EmitB28_NtB6_9StreamingEEBF_+0x55c>
    8768:	e1863607 	orr	r3, r6, r7, lsl #12
    876c:	e2436025 	sub	r6, r3, #37	@ 0x25
    8770:	e3560059 	cmp	r6, #89	@ 0x59
    8774:	9affff23 	bls	8408 <_RINvXse_NtCsimG8iQ5CXkH_3nom8internalNvNtNtCscA5RF7Ru5It_7pi_side8language5parse14parse_operatorINtB6_6ParserReE7processINtB6_7OutputMNtB6_4EmitB28_NtB6_9StreamingEEBF_+0x184>
    8778:	ea00001e 	b	87f8 <_RINvXse_NtCsimG8iQ5CXkH_3nom8internalNvNtNtCscA5RF7Ru5It_7pi_side8language5parse14parse_operatorINtB6_6ParserReE7processINtB6_7OutputMNtB6_4EmitB28_NtB6_9StreamingEEBF_+0x574>
    877c:	e187430c 	orr	r4, r7, ip, lsl #6
    8780:	ea000016 	b	87e0 <_RINvXse_NtCsimG8iQ5CXkH_3nom8internalNvNtNtCscA5RF7Ru5It_7pi_side8language5parse14parse_operatorINtB6_6ParserReE7processINtB6_7OutputMNtB6_4EmitB28_NtB6_9StreamingEEBF_+0x55c>
    8784:	e3a0100f 	mov	r1, #15
    8788:	ea00000a 	b	87b8 <_RINvXse_NtCsimG8iQ5CXkH_3nom8internalNvNtNtCscA5RF7Ru5It_7pi_side8language5parse14parse_operatorINtB6_6ParserReE7processINtB6_7OutputMNtB6_4EmitB28_NtB6_9StreamingEEBF_+0x534>
    878c:	e3a01012 	mov	r1, #18
    8790:	ea000008 	b	87b8 <_RINvXse_NtCsimG8iQ5CXkH_3nom8internalNvNtNtCscA5RF7Ru5It_7pi_side8language5parse14parse_operatorINtB6_6ParserReE7processINtB6_7OutputMNtB6_4EmitB28_NtB6_9StreamingEEBF_+0x534>
    8794:	e3a01018 	mov	r1, #24
    8798:	ea000006 	b	87b8 <_RINvXse_NtCsimG8iQ5CXkH_3nom8internalNvNtNtCscA5RF7Ru5It_7pi_side8language5parse14parse_operatorINtB6_6ParserReE7processINtB6_7OutputMNtB6_4EmitB28_NtB6_9StreamingEEBF_+0x534>
    879c:	e3a01010 	mov	r1, #16
    87a0:	ea000004 	b	87b8 <_RINvXse_NtCsimG8iQ5CXkH_3nom8internalNvNtNtCscA5RF7Ru5It_7pi_side8language5parse14parse_operatorINtB6_6ParserReE7processINtB6_7OutputMNtB6_4EmitB28_NtB6_9StreamingEEBF_+0x534>
    87a4:	e3a01011 	mov	r1, #17
    87a8:	ea000002 	b	87b8 <_RINvXse_NtCsimG8iQ5CXkH_3nom8internalNvNtNtCscA5RF7Ru5It_7pi_side8language5parse14parse_operatorINtB6_6ParserReE7processINtB6_7OutputMNtB6_4EmitB28_NtB6_9StreamingEEBF_+0x534>
    87ac:	e3a01017 	mov	r1, #23
    87b0:	ea000000 	b	87b8 <_RINvXse_NtCsimG8iQ5CXkH_3nom8internalNvNtNtCscA5RF7Ru5It_7pi_side8language5parse14parse_operatorINtB6_6ParserReE7processINtB6_7OutputMNtB6_4EmitB28_NtB6_9StreamingEEBF_+0x534>
    87b4:	e3a0100e 	mov	r1, #14
    87b8:	e3a02001 	mov	r2, #1
    87bc:	e5c01009 	strb	r1, [r0, #9]
    87c0:	e3a01003 	mov	r1, #3
    87c4:	e580200c 	str	r2, [r0, #12]
    87c8:	e5c01008 	strb	r1, [r0, #8]
    87cc:	e5805000 	str	r5, [r0]
    87d0:	e5803004 	str	r3, [r0, #4]
    87d4:	e28dd008 	add	sp, sp, #8
    87d8:	e8bd8bf0 	pop	{r4, r5, r6, r7, r8, r9, fp, pc}
    87dc:	e187460c 	orr	r4, r7, ip, lsl #12
    87e0:	e3c43020 	bic	r3, r4, #32
    87e4:	e2433041 	sub	r3, r3, #65	@ 0x41
    87e8:	e353001a 	cmp	r3, #26
    87ec:	22443030 	subcs	r3, r4, #48	@ 0x30
    87f0:	2353000a 	cmpcs	r3, #10
    87f4:	2a000008 	bcs	881c <_RINvXse_NtCsimG8iQ5CXkH_3nom8internalNvNtNtCscA5RF7Ru5It_7pi_side8language5parse14parse_operatorINtB6_6ParserReE7processINtB6_7OutputMNtB6_4EmitB28_NtB6_9StreamingEEBF_+0x598>
    87f8:	e280c010 	add	ip, r0, #16
    87fc:	e3a03034 	mov	r3, #52	@ 0x34
    8800:	e3a07001 	mov	r7, #1
    8804:	e88c000e 	stm	ip, {r1, r2, r3}
    8808:	e3a010ff 	mov	r1, #255	@ 0xff
    880c:	e580700c 	str	r7, [r0, #12]
    8810:	e5c01008 	strb	r1, [r0, #8]
    8814:	e28dd008 	add	sp, sp, #8
    8818:	e8bd8bf0 	pop	{r4, r5, r6, r7, r8, r9, fp, pc}
    881c:	e35400aa 	cmp	r4, #170	@ 0xaa
    8820:	2a00000b 	bcs	8854 <_RINvXse_NtCsimG8iQ5CXkH_3nom8internalNvNtNtCscA5RF7Ru5It_7pi_side8language5parse14parse_operatorINtB6_6ParserReE7processINtB6_7OutputMNtB6_4EmitB28_NtB6_9StreamingEEBF_+0x5d0>
    8824:	e3540021 	cmp	r4, #33	@ 0x21
    8828:	0afffff2 	beq	87f8 <_RINvXse_NtCsimG8iQ5CXkH_3nom8internalNvNtNtCscA5RF7Ru5It_7pi_side8language5parse14parse_operatorINtB6_6ParserReE7processINtB6_7OutputMNtB6_4EmitB28_NtB6_9StreamingEEBF_+0x574>
    882c:	e354003f 	cmp	r4, #63	@ 0x3f
    8830:	1354005f 	cmpne	r4, #95	@ 0x5f
    8834:	0affffef 	beq	87f8 <_RINvXse_NtCsimG8iQ5CXkH_3nom8internalNvNtNtCscA5RF7Ru5It_7pi_side8language5parse14parse_operatorINtB6_6ParserReE7processINtB6_7OutputMNtB6_4EmitB28_NtB6_9StreamingEEBF_+0x574>
    8838:	e2423001 	sub	r3, r2, #1
    883c:	e3560059 	cmp	r6, #89	@ 0x59
    8840:	9affff52 	bls	8590 <_RINvXse_NtCsimG8iQ5CXkH_3nom8internalNvNtNtCscA5RF7Ru5It_7pi_side8language5parse14parse_operatorINtB6_6ParserReE7processINtB6_7OutputMNtB6_4EmitB28_NtB6_9StreamingEEBF_+0x30c>
    8844:	e59f00c4 	ldr	r0, [pc, #196]	@ 8910 <_RINvXse_NtCsimG8iQ5CXkH_3nom8internalNvNtNtCscA5RF7Ru5It_7pi_side8language5parse14parse_operatorINtB6_6ParserReE7processINtB6_7OutputMNtB6_4EmitB28_NtB6_9StreamingEEBF_+0x68c>
    8848:	e3a01028 	mov	r1, #40	@ 0x28
    884c:	e59f20c0 	ldr	r2, [pc, #192]	@ 8914 <_RINvXse_NtCsimG8iQ5CXkH_3nom8internalNvNtNtCscA5RF7Ru5It_7pi_side8language5parse14parse_operatorINtB6_6ParserReE7processINtB6_7OutputMNtB6_4EmitB28_NtB6_9StreamingEEBF_+0x690>
    8850:	eb005e45 	bl	2016c <_RNvNtCs5HYdw2IoCB0_4core9panicking5panic>
    8854:	e1a08000 	mov	r8, r0
    8858:	e1a00004 	mov	r0, r4
    885c:	e1a09002 	mov	r9, r2
    8860:	e1a07001 	mov	r7, r1
    8864:	eb0057c5 	bl	1e780 <_RNvNtNtNtCs5HYdw2IoCB0_4core7unicode12unicode_data10alphabetic11lookup_slow>
    8868:	e1a03000 	mov	r3, r0
    886c:	e1a01007 	mov	r1, r7
    8870:	e1a02009 	mov	r2, r9
    8874:	e1a00008 	mov	r0, r8
    8878:	e3530000 	cmp	r3, #0
    887c:	1affffdd 	bne	87f8 <_RINvXse_NtCsimG8iQ5CXkH_3nom8internalNvNtNtCscA5RF7Ru5It_7pi_side8language5parse14parse_operatorINtB6_6ParserReE7processINtB6_7OutputMNtB6_4EmitB28_NtB6_9StreamingEEBF_+0x574>
    8880:	e35400b2 	cmp	r4, #178	@ 0xb2
    8884:	3affffe6 	bcc	8824 <_RINvXse_NtCsimG8iQ5CXkH_3nom8internalNvNtNtCscA5RF7Ru5It_7pi_side8language5parse14parse_operatorINtB6_6ParserReE7processINtB6_7OutputMNtB6_4EmitB28_NtB6_9StreamingEEBF_+0x5a0>
    8888:	e1a00004 	mov	r0, r4
    888c:	eb005e8e 	bl	202cc <_RNvNtNtNtCs5HYdw2IoCB0_4core7unicode12unicode_data1n11lookup_slow>
    8890:	e1a03000 	mov	r3, r0
    8894:	e1a01007 	mov	r1, r7
    8898:	e1a02009 	mov	r2, r9
    889c:	e1a00008 	mov	r0, r8
    88a0:	e3530000 	cmp	r3, #0
    88a4:	1affffd3 	bne	87f8 <_RINvXse_NtCsimG8iQ5CXkH_3nom8internalNvNtNtCscA5RF7Ru5It_7pi_side8language5parse14parse_operatorINtB6_6ParserReE7processINtB6_7OutputMNtB6_4EmitB28_NtB6_9StreamingEEBF_+0x574>
    88a8:	eaffffdd 	b	8824 <_RINvXse_NtCsimG8iQ5CXkH_3nom8internalNvNtNtCscA5RF7Ru5It_7pi_side8language5parse14parse_operatorINtB6_6ParserReE7processINtB6_7OutputMNtB6_4EmitB28_NtB6_9StreamingEEBF_+0x5a0>
    88ac:	e59f0058 	ldr	r0, [pc, #88]	@ 890c <_RINvXse_NtCsimG8iQ5CXkH_3nom8internalNvNtNtCscA5RF7Ru5It_7pi_side8language5parse14parse_operatorINtB6_6ParserReE7processINtB6_7OutputMNtB6_4EmitB28_NtB6_9StreamingEEBF_+0x688>
    88b0:	e1a03002 	mov	r3, r2
    88b4:	e58d0000 	str	r0, [sp]
    88b8:	e1a00001 	mov	r0, r1
    88bc:	e1a01002 	mov	r1, r2
    88c0:	e3a02001 	mov	r2, #1
    88c4:	eb005d25 	bl	1fd60 <_RNvNtCs5HYdw2IoCB0_4core3str16slice_error_fail>
    88c8:	e59f0038 	ldr	r0, [pc, #56]	@ 8908 <_RINvXse_NtCsimG8iQ5CXkH_3nom8internalNvNtNtCscA5RF7Ru5It_7pi_side8language5parse14parse_operatorINtB6_6ParserReE7processINtB6_7OutputMNtB6_4EmitB28_NtB6_9StreamingEEBF_+0x684>
    88cc:	ea000004 	b	88e4 <_RINvXse_NtCsimG8iQ5CXkH_3nom8internalNvNtNtCscA5RF7Ru5It_7pi_side8language5parse14parse_operatorINtB6_6ParserReE7processINtB6_7OutputMNtB6_4EmitB28_NtB6_9StreamingEEBF_+0x660>
    88d0:	e59f002c 	ldr	r0, [pc, #44]	@ 8904 <_RINvXse_NtCsimG8iQ5CXkH_3nom8internalNvNtNtCscA5RF7Ru5It_7pi_side8language5parse14parse_operatorINtB6_6ParserReE7processINtB6_7OutputMNtB6_4EmitB28_NtB6_9StreamingEEBF_+0x680>
    88d4:	ea000002 	b	88e4 <_RINvXse_NtCsimG8iQ5CXkH_3nom8internalNvNtNtCscA5RF7Ru5It_7pi_side8language5parse14parse_operatorINtB6_6ParserReE7processINtB6_7OutputMNtB6_4EmitB28_NtB6_9StreamingEEBF_+0x660>
    88d8:	e59f0020 	ldr	r0, [pc, #32]	@ 8900 <_RINvXse_NtCsimG8iQ5CXkH_3nom8internalNvNtNtCscA5RF7Ru5It_7pi_side8language5parse14parse_operatorINtB6_6ParserReE7processINtB6_7OutputMNtB6_4EmitB28_NtB6_9StreamingEEBF_+0x67c>
    88dc:	ea000000 	b	88e4 <_RINvXse_NtCsimG8iQ5CXkH_3nom8internalNvNtNtCscA5RF7Ru5It_7pi_side8language5parse14parse_operatorINtB6_6ParserReE7processINtB6_7OutputMNtB6_4EmitB28_NtB6_9StreamingEEBF_+0x660>
    88e0:	e59f0014 	ldr	r0, [pc, #20]	@ 88fc <_RINvXse_NtCsimG8iQ5CXkH_3nom8internalNvNtNtCscA5RF7Ru5It_7pi_side8language5parse14parse_operatorINtB6_6ParserReE7processINtB6_7OutputMNtB6_4EmitB28_NtB6_9StreamingEEBF_+0x678>
    88e4:	e58d0000 	str	r0, [sp]
    88e8:	e1a00001 	mov	r0, r1
    88ec:	e1a01002 	mov	r1, r2
    88f0:	e1a03002 	mov	r3, r2
    88f4:	e3a02002 	mov	r2, #2
    88f8:	eb005d18 	bl	1fd60 <_RNvNtCs5HYdw2IoCB0_4core3str16slice_error_fail>
    88fc:	0002246c 	.word	0x0002246c
    8900:	0002247c 	.word	0x0002247c
    8904:	0002248c 	.word	0x0002248c
    8908:	0002249c 	.word	0x0002249c
    890c:	000224fc 	.word	0x000224fc
    8910:	000223e4 	.word	0x000223e4
    8914:	0002245c 	.word	0x0002245c

00008918 <_RINvXse_NtCsimG8iQ5CXkH_3nom8internalNvNtNtCscA5RF7Ru5It_7pi_side8language5parse16parse_identifierINtB6_6ParserReE7processINtB6_7OutputMNtB6_4EmitB2a_NtB6_9StreamingEEBF_>:
    8918:	e92d4ff0 	push	{r4, r5, r6, r7, r8, r9, sl, fp, lr}
    891c:	e24dd04c 	sub	sp, sp, #76	@ 0x4c
    8920:	e1a08002 	mov	r8, r2
    8924:	e1a0a001 	mov	sl, r1
    8928:	e1a04000 	mov	r4, r0
    892c:	e3a0500f 	mov	r5, #15
    8930:	e3520000 	cmp	r2, #0
    8934:	0a00011e 	beq	8db4 <_RINvXse_NtCsimG8iQ5CXkH_3nom8internalNvNtNtCscA5RF7Ru5It_7pi_side8language5parse16parse_identifierINtB6_6ParserReE7processINtB6_7OutputMNtB6_4EmitB2a_NtB6_9StreamingEEBF_+0x49c>
    8938:	e1da00d0 	ldrsb	r0, [sl]
    893c:	e3700001 	cmn	r0, #1
    8940:	e6ef7070 	uxtb	r7, r0
    8944:	e1a06007 	mov	r6, r7
    8948:	ca000012 	bgt	8998 <_RINvXse_NtCsimG8iQ5CXkH_3nom8internalNvNtNtCscA5RF7Ru5It_7pi_side8language5parse16parse_identifierINtB6_6ParserReE7processINtB6_7OutputMNtB6_4EmitB2a_NtB6_9StreamingEEBF_+0x80>
    894c:	e5da1001 	ldrb	r1, [sl, #1]
    8950:	e207001f 	and	r0, r7, #31
    8954:	e35700e0 	cmp	r7, #224	@ 0xe0
    8958:	e201103f 	and	r1, r1, #63	@ 0x3f
    895c:	3a00000a 	bcc	898c <_RINvXse_NtCsimG8iQ5CXkH_3nom8internalNvNtNtCscA5RF7Ru5It_7pi_side8language5parse16parse_identifierINtB6_6ParserReE7processINtB6_7OutputMNtB6_4EmitB2a_NtB6_9StreamingEEBF_+0x74>
    8960:	e5da2002 	ldrb	r2, [sl, #2]
    8964:	e35700f0 	cmp	r7, #240	@ 0xf0
    8968:	e202203f 	and	r2, r2, #63	@ 0x3f
    896c:	e1821301 	orr	r1, r2, r1, lsl #6
    8970:	3a000007 	bcc	8994 <_RINvXse_NtCsimG8iQ5CXkH_3nom8internalNvNtNtCscA5RF7Ru5It_7pi_side8language5parse16parse_identifierINtB6_6ParserReE7processINtB6_7OutputMNtB6_4EmitB2a_NtB6_9StreamingEEBF_+0x7c>
    8974:	e5da2003 	ldrb	r2, [sl, #3]
    8978:	e2000007 	and	r0, r0, #7
    897c:	e202203f 	and	r2, r2, #63	@ 0x3f
    8980:	e1821301 	orr	r1, r2, r1, lsl #6
    8984:	e1816900 	orr	r6, r1, r0, lsl #18
    8988:	ea000002 	b	8998 <_RINvXse_NtCsimG8iQ5CXkH_3nom8internalNvNtNtCscA5RF7Ru5It_7pi_side8language5parse16parse_identifierINtB6_6ParserReE7processINtB6_7OutputMNtB6_4EmitB2a_NtB6_9StreamingEEBF_+0x80>
    898c:	e1816300 	orr	r6, r1, r0, lsl #6
    8990:	ea000000 	b	8998 <_RINvXse_NtCsimG8iQ5CXkH_3nom8internalNvNtNtCscA5RF7Ru5It_7pi_side8language5parse16parse_identifierINtB6_6ParserReE7processINtB6_7OutputMNtB6_4EmitB2a_NtB6_9StreamingEEBF_+0x80>
    8994:	e1816600 	orr	r6, r1, r0, lsl #12
    8998:	e3c60020 	bic	r0, r6, #32
    899c:	e2400041 	sub	r0, r0, #65	@ 0x41
    89a0:	e350001a 	cmp	r0, #26
    89a4:	22460030 	subcs	r0, r6, #48	@ 0x30
    89a8:	2350000a 	cmpcs	r0, #10
    89ac:	2a000060 	bcs	8b34 <_RINvXse_NtCsimG8iQ5CXkH_3nom8internalNvNtNtCscA5RF7Ru5It_7pi_side8language5parse16parse_identifierINtB6_6ParserReE7processINtB6_7OutputMNtB6_4EmitB2a_NtB6_9StreamingEEBF_+0x21c>
    89b0:	e98d0110 	stmib	sp, {r4, r8}
    89b4:	e08a5008 	add	r5, sl, r8
    89b8:	e3a09001 	mov	r9, #1
    89bc:	e59f4420 	ldr	r4, [pc, #1056]	@ 8de4 <_RINvXse_NtCsimG8iQ5CXkH_3nom8internalNvNtNtCscA5RF7Ru5It_7pi_side8language5parse16parse_identifierINtB6_6ParserReE7processINtB6_7OutputMNtB6_4EmitB2a_NtB6_9StreamingEEBF_+0x4cc>
    89c0:	e59f8420 	ldr	r8, [pc, #1056]	@ 8de8 <_RINvXse_NtCsimG8iQ5CXkH_3nom8internalNvNtNtCscA5RF7Ru5It_7pi_side8language5parse16parse_identifierINtB6_6ParserReE7processINtB6_7OutputMNtB6_4EmitB2a_NtB6_9StreamingEEBF_+0x4d0>
    89c4:	e58d7000 	str	r7, [sp]
    89c8:	e3a07000 	mov	r7, #0
    89cc:	e58da00c 	str	sl, [sp, #12]
    89d0:	ea00000b 	b	8a04 <_RINvXse_NtCsimG8iQ5CXkH_3nom8internalNvNtNtCscA5RF7Ru5It_7pi_side8language5parse16parse_identifierINtB6_6ParserReE7processINtB6_7OutputMNtB6_4EmitB2a_NtB6_9StreamingEEBF_+0xec>
    89d4:	e1816300 	orr	r6, r1, r0, lsl #6
    89d8:	e28ba002 	add	sl, fp, #2
    89dc:	e0060004 	and	r0, r6, r4
    89e0:	e2400041 	sub	r0, r0, #65	@ 0x41
    89e4:	e350001a 	cmp	r0, #26
    89e8:	22460030 	subcs	r0, r6, #48	@ 0x30
    89ec:	2350000a 	cmpcs	r0, #10
    89f0:	2a000019 	bcs	8a5c <_RINvXse_NtCsimG8iQ5CXkH_3nom8internalNvNtNtCscA5RF7Ru5It_7pi_side8language5parse16parse_identifierINtB6_6ParserReE7processINtB6_7OutputMNtB6_4EmitB2a_NtB6_9StreamingEEBF_+0x144>
    89f4:	e047000b 	sub	r0, r7, fp
    89f8:	e15a0005 	cmp	sl, r5
    89fc:	e080700a 	add	r7, r0, sl
    8a00:	0a00002d 	beq	8abc <_RINvXse_NtCsimG8iQ5CXkH_3nom8internalNvNtNtCscA5RF7Ru5It_7pi_side8language5parse16parse_identifierINtB6_6ParserReE7processINtB6_7OutputMNtB6_4EmitB2a_NtB6_9StreamingEEBF_+0x1a4>
    8a04:	e1a0b00a 	mov	fp, sl
    8a08:	e0da00d1 	ldrsb	r0, [sl], #1
    8a0c:	e3700001 	cmn	r0, #1
    8a10:	e6ef6070 	uxtb	r6, r0
    8a14:	cafffff0 	bgt	89dc <_RINvXse_NtCsimG8iQ5CXkH_3nom8internalNvNtNtCscA5RF7Ru5It_7pi_side8language5parse16parse_identifierINtB6_6ParserReE7processINtB6_7OutputMNtB6_4EmitB2a_NtB6_9StreamingEEBF_+0xc4>
    8a18:	e5db1001 	ldrb	r1, [fp, #1]
    8a1c:	e206001f 	and	r0, r6, #31
    8a20:	e35600e0 	cmp	r6, #224	@ 0xe0
    8a24:	e201103f 	and	r1, r1, #63	@ 0x3f
    8a28:	3affffe9 	bcc	89d4 <_RINvXse_NtCsimG8iQ5CXkH_3nom8internalNvNtNtCscA5RF7Ru5It_7pi_side8language5parse16parse_identifierINtB6_6ParserReE7processINtB6_7OutputMNtB6_4EmitB2a_NtB6_9StreamingEEBF_+0xbc>
    8a2c:	e5db2002 	ldrb	r2, [fp, #2]
    8a30:	e35600f0 	cmp	r6, #240	@ 0xf0
    8a34:	e202203f 	and	r2, r2, #63	@ 0x3f
    8a38:	e1821301 	orr	r1, r2, r1, lsl #6
    8a3c:	3a00001b 	bcc	8ab0 <_RINvXse_NtCsimG8iQ5CXkH_3nom8internalNvNtNtCscA5RF7Ru5It_7pi_side8language5parse16parse_identifierINtB6_6ParserReE7processINtB6_7OutputMNtB6_4EmitB2a_NtB6_9StreamingEEBF_+0x198>
    8a40:	e5db2003 	ldrb	r2, [fp, #3]
    8a44:	e2000007 	and	r0, r0, #7
    8a48:	e28ba004 	add	sl, fp, #4
    8a4c:	e202203f 	and	r2, r2, #63	@ 0x3f
    8a50:	e1821301 	orr	r1, r2, r1, lsl #6
    8a54:	e1816900 	orr	r6, r1, r0, lsl #18
    8a58:	eaffffdf 	b	89dc <_RINvXse_NtCsimG8iQ5CXkH_3nom8internalNvNtNtCscA5RF7Ru5It_7pi_side8language5parse16parse_identifierINtB6_6ParserReE7processINtB6_7OutputMNtB6_4EmitB2a_NtB6_9StreamingEEBF_+0xc4>
    8a5c:	e35600aa 	cmp	r6, #170	@ 0xaa
    8a60:	2a000007 	bcs	8a84 <_RINvXse_NtCsimG8iQ5CXkH_3nom8internalNvNtNtCscA5RF7Ru5It_7pi_side8language5parse16parse_identifierINtB6_6ParserReE7processINtB6_7OutputMNtB6_4EmitB2a_NtB6_9StreamingEEBF_+0x16c>
    8a64:	e2460021 	sub	r0, r6, #33	@ 0x21
    8a68:	e350001e 	cmp	r0, #30
    8a6c:	8a000001 	bhi	8a78 <_RINvXse_NtCsimG8iQ5CXkH_3nom8internalNvNtNtCscA5RF7Ru5It_7pi_side8language5parse16parse_identifierINtB6_6ParserReE7processINtB6_7OutputMNtB6_4EmitB2a_NtB6_9StreamingEEBF_+0x160>
    8a70:	e1180019 	tst	r8, r9, lsl r0
    8a74:	1affffde 	bne	89f4 <_RINvXse_NtCsimG8iQ5CXkH_3nom8internalNvNtNtCscA5RF7Ru5It_7pi_side8language5parse16parse_identifierINtB6_6ParserReE7processINtB6_7OutputMNtB6_4EmitB2a_NtB6_9StreamingEEBF_+0xdc>
    8a78:	e356005f 	cmp	r6, #95	@ 0x5f
    8a7c:	0affffdc 	beq	89f4 <_RINvXse_NtCsimG8iQ5CXkH_3nom8internalNvNtNtCscA5RF7Ru5It_7pi_side8language5parse16parse_identifierINtB6_6ParserReE7processINtB6_7OutputMNtB6_4EmitB2a_NtB6_9StreamingEEBF_+0xdc>
    8a80:	ea000059 	b	8bec <_RINvXse_NtCsimG8iQ5CXkH_3nom8internalNvNtNtCscA5RF7Ru5It_7pi_side8language5parse16parse_identifierINtB6_6ParserReE7processINtB6_7OutputMNtB6_4EmitB2a_NtB6_9StreamingEEBF_+0x2d4>
    8a84:	e1a00006 	mov	r0, r6
    8a88:	eb00573c 	bl	1e780 <_RNvNtNtNtCs5HYdw2IoCB0_4core7unicode12unicode_data10alphabetic11lookup_slow>
    8a8c:	e3500000 	cmp	r0, #0
    8a90:	1affffd7 	bne	89f4 <_RINvXse_NtCsimG8iQ5CXkH_3nom8internalNvNtNtCscA5RF7Ru5It_7pi_side8language5parse16parse_identifierINtB6_6ParserReE7processINtB6_7OutputMNtB6_4EmitB2a_NtB6_9StreamingEEBF_+0xdc>
    8a94:	e35600b2 	cmp	r6, #178	@ 0xb2
    8a98:	3afffff1 	bcc	8a64 <_RINvXse_NtCsimG8iQ5CXkH_3nom8internalNvNtNtCscA5RF7Ru5It_7pi_side8language5parse16parse_identifierINtB6_6ParserReE7processINtB6_7OutputMNtB6_4EmitB2a_NtB6_9StreamingEEBF_+0x14c>
    8a9c:	e1a00006 	mov	r0, r6
    8aa0:	eb005e09 	bl	202cc <_RNvNtNtNtCs5HYdw2IoCB0_4core7unicode12unicode_data1n11lookup_slow>
    8aa4:	e3500000 	cmp	r0, #0
    8aa8:	1affffd1 	bne	89f4 <_RINvXse_NtCsimG8iQ5CXkH_3nom8internalNvNtNtCscA5RF7Ru5It_7pi_side8language5parse16parse_identifierINtB6_6ParserReE7processINtB6_7OutputMNtB6_4EmitB2a_NtB6_9StreamingEEBF_+0xdc>
    8aac:	eaffffec 	b	8a64 <_RINvXse_NtCsimG8iQ5CXkH_3nom8internalNvNtNtCscA5RF7Ru5It_7pi_side8language5parse16parse_identifierINtB6_6ParserReE7processINtB6_7OutputMNtB6_4EmitB2a_NtB6_9StreamingEEBF_+0x14c>
    8ab0:	e1816600 	orr	r6, r1, r0, lsl #12
    8ab4:	e28ba003 	add	sl, fp, #3
    8ab8:	eaffffc7 	b	89dc <_RINvXse_NtCsimG8iQ5CXkH_3nom8internalNvNtNtCscA5RF7Ru5It_7pi_side8language5parse16parse_identifierINtB6_6ParserReE7processINtB6_7OutputMNtB6_4EmitB2a_NtB6_9StreamingEEBF_+0xc4>
    8abc:	e59d8008 	ldr	r8, [sp, #8]
    8ac0:	e3a0b000 	mov	fp, #0
    8ac4:	e59da00c 	ldr	sl, [sp, #12]
    8ac8:	e1a07008 	mov	r7, r8
    8acc:	e3570005 	cmp	r7, #5
    8ad0:	0a00004d 	beq	8c0c <_RINvXse_NtCsimG8iQ5CXkH_3nom8internalNvNtNtCscA5RF7Ru5It_7pi_side8language5parse16parse_identifierINtB6_6ParserReE7processINtB6_7OutputMNtB6_4EmitB2a_NtB6_9StreamingEEBF_+0x2f4>
    8ad4:	e3570004 	cmp	r7, #4
    8ad8:	0a00001d 	beq	8b54 <_RINvXse_NtCsimG8iQ5CXkH_3nom8internalNvNtNtCscA5RF7Ru5It_7pi_side8language5parse16parse_identifierINtB6_6ParserReE7processINtB6_7OutputMNtB6_4EmitB2a_NtB6_9StreamingEEBF_+0x23c>
    8adc:	e3570003 	cmp	r7, #3
    8ae0:	1a00006a 	bne	8c90 <_RINvXse_NtCsimG8iQ5CXkH_3nom8internalNvNtNtCscA5RF7Ru5It_7pi_side8language5parse16parse_identifierINtB6_6ParserReE7processINtB6_7OutputMNtB6_4EmitB2a_NtB6_9StreamingEEBF_+0x378>
    8ae4:	e59d1000 	ldr	r1, [sp]
    8ae8:	e2410041 	sub	r0, r1, #65	@ 0x41
    8aec:	e350001a 	cmp	r0, #26
    8af0:	33811020 	orrcc	r1, r1, #32
    8af4:	e351006e 	cmp	r1, #110	@ 0x6e
    8af8:	1a000064 	bne	8c90 <_RINvXse_NtCsimG8iQ5CXkH_3nom8internalNvNtNtCscA5RF7Ru5It_7pi_side8language5parse16parse_identifierINtB6_6ParserReE7processINtB6_7OutputMNtB6_4EmitB2a_NtB6_9StreamingEEBF_+0x378>
    8afc:	e5da0001 	ldrb	r0, [sl, #1]
    8b00:	e2401041 	sub	r1, r0, #65	@ 0x41
    8b04:	e351001a 	cmp	r1, #26
    8b08:	33800020 	orrcc	r0, r0, #32
    8b0c:	e3500069 	cmp	r0, #105	@ 0x69
    8b10:	1a00005e 	bne	8c90 <_RINvXse_NtCsimG8iQ5CXkH_3nom8internalNvNtNtCscA5RF7Ru5It_7pi_side8language5parse16parse_identifierINtB6_6ParserReE7processINtB6_7OutputMNtB6_4EmitB2a_NtB6_9StreamingEEBF_+0x378>
    8b14:	e5da0002 	ldrb	r0, [sl, #2]
    8b18:	e2401041 	sub	r1, r0, #65	@ 0x41
    8b1c:	e351001a 	cmp	r1, #26
    8b20:	33800020 	orrcc	r0, r0, #32
    8b24:	e350006c 	cmp	r0, #108	@ 0x6c
    8b28:	1a000058 	bne	8c90 <_RINvXse_NtCsimG8iQ5CXkH_3nom8internalNvNtNtCscA5RF7Ru5It_7pi_side8language5parse16parse_identifierINtB6_6ParserReE7processINtB6_7OutputMNtB6_4EmitB2a_NtB6_9StreamingEEBF_+0x378>
    8b2c:	e3a0a000 	mov	sl, #0
    8b30:	ea000093 	b	8d84 <_RINvXse_NtCsimG8iQ5CXkH_3nom8internalNvNtNtCscA5RF7Ru5It_7pi_side8language5parse16parse_identifierINtB6_6ParserReE7processINtB6_7OutputMNtB6_4EmitB2a_NtB6_9StreamingEEBF_+0x46c>
    8b34:	e35600aa 	cmp	r6, #170	@ 0xaa
    8b38:	2a000020 	bcs	8bc0 <_RINvXse_NtCsimG8iQ5CXkH_3nom8internalNvNtNtCscA5RF7Ru5It_7pi_side8language5parse16parse_identifierINtB6_6ParserReE7processINtB6_7OutputMNtB6_4EmitB2a_NtB6_9StreamingEEBF_+0x2a8>
    8b3c:	e3560021 	cmp	r6, #33	@ 0x21
    8b40:	1356005f 	cmpne	r6, #95	@ 0x5f
    8b44:	0affff99 	beq	89b0 <_RINvXse_NtCsimG8iQ5CXkH_3nom8internalNvNtNtCscA5RF7Ru5It_7pi_side8language5parse16parse_identifierINtB6_6ParserReE7processINtB6_7OutputMNtB6_4EmitB2a_NtB6_9StreamingEEBF_+0x98>
    8b48:	e356003f 	cmp	r6, #63	@ 0x3f
    8b4c:	0affff97 	beq	89b0 <_RINvXse_NtCsimG8iQ5CXkH_3nom8internalNvNtNtCscA5RF7Ru5It_7pi_side8language5parse16parse_identifierINtB6_6ParserReE7processINtB6_7OutputMNtB6_4EmitB2a_NtB6_9StreamingEEBF_+0x98>
    8b50:	ea000097 	b	8db4 <_RINvXse_NtCsimG8iQ5CXkH_3nom8internalNvNtNtCscA5RF7Ru5It_7pi_side8language5parse16parse_identifierINtB6_6ParserReE7processINtB6_7OutputMNtB6_4EmitB2a_NtB6_9StreamingEEBF_+0x49c>
    8b54:	e59d1000 	ldr	r1, [sp]
    8b58:	e2410041 	sub	r0, r1, #65	@ 0x41
    8b5c:	e350001a 	cmp	r0, #26
    8b60:	33811020 	orrcc	r1, r1, #32
    8b64:	e3510074 	cmp	r1, #116	@ 0x74
    8b68:	1a000048 	bne	8c90 <_RINvXse_NtCsimG8iQ5CXkH_3nom8internalNvNtNtCscA5RF7Ru5It_7pi_side8language5parse16parse_identifierINtB6_6ParserReE7processINtB6_7OutputMNtB6_4EmitB2a_NtB6_9StreamingEEBF_+0x378>
    8b6c:	e5da0001 	ldrb	r0, [sl, #1]
    8b70:	e2401041 	sub	r1, r0, #65	@ 0x41
    8b74:	e351001a 	cmp	r1, #26
    8b78:	33800020 	orrcc	r0, r0, #32
    8b7c:	e3500072 	cmp	r0, #114	@ 0x72
    8b80:	1a000042 	bne	8c90 <_RINvXse_NtCsimG8iQ5CXkH_3nom8internalNvNtNtCscA5RF7Ru5It_7pi_side8language5parse16parse_identifierINtB6_6ParserReE7processINtB6_7OutputMNtB6_4EmitB2a_NtB6_9StreamingEEBF_+0x378>
    8b84:	e5da0002 	ldrb	r0, [sl, #2]
    8b88:	e2401041 	sub	r1, r0, #65	@ 0x41
    8b8c:	e351001a 	cmp	r1, #26
    8b90:	33800020 	orrcc	r0, r0, #32
    8b94:	e3500075 	cmp	r0, #117	@ 0x75
    8b98:	1a00003c 	bne	8c90 <_RINvXse_NtCsimG8iQ5CXkH_3nom8internalNvNtNtCscA5RF7Ru5It_7pi_side8language5parse16parse_identifierINtB6_6ParserReE7processINtB6_7OutputMNtB6_4EmitB2a_NtB6_9StreamingEEBF_+0x378>
    8b9c:	e5da0003 	ldrb	r0, [sl, #3]
    8ba0:	e2401041 	sub	r1, r0, #65	@ 0x41
    8ba4:	e351001a 	cmp	r1, #26
    8ba8:	33800020 	orrcc	r0, r0, #32
    8bac:	e3500065 	cmp	r0, #101	@ 0x65
    8bb0:	1a000036 	bne	8c90 <_RINvXse_NtCsimG8iQ5CXkH_3nom8internalNvNtNtCscA5RF7Ru5It_7pi_side8language5parse16parse_identifierINtB6_6ParserReE7processINtB6_7OutputMNtB6_4EmitB2a_NtB6_9StreamingEEBF_+0x378>
    8bb4:	e3a01001 	mov	r1, #1
    8bb8:	e3a0a001 	mov	sl, #1
    8bbc:	ea000070 	b	8d84 <_RINvXse_NtCsimG8iQ5CXkH_3nom8internalNvNtNtCscA5RF7Ru5It_7pi_side8language5parse16parse_identifierINtB6_6ParserReE7processINtB6_7OutputMNtB6_4EmitB2a_NtB6_9StreamingEEBF_+0x46c>
    8bc0:	e1a00006 	mov	r0, r6
    8bc4:	eb0056ed 	bl	1e780 <_RNvNtNtNtCs5HYdw2IoCB0_4core7unicode12unicode_data10alphabetic11lookup_slow>
    8bc8:	e3500000 	cmp	r0, #0
    8bcc:	1affff77 	bne	89b0 <_RINvXse_NtCsimG8iQ5CXkH_3nom8internalNvNtNtCscA5RF7Ru5It_7pi_side8language5parse16parse_identifierINtB6_6ParserReE7processINtB6_7OutputMNtB6_4EmitB2a_NtB6_9StreamingEEBF_+0x98>
    8bd0:	e35600b2 	cmp	r6, #178	@ 0xb2
    8bd4:	3affffd8 	bcc	8b3c <_RINvXse_NtCsimG8iQ5CXkH_3nom8internalNvNtNtCscA5RF7Ru5It_7pi_side8language5parse16parse_identifierINtB6_6ParserReE7processINtB6_7OutputMNtB6_4EmitB2a_NtB6_9StreamingEEBF_+0x224>
    8bd8:	e1a00006 	mov	r0, r6
    8bdc:	eb005dba 	bl	202cc <_RNvNtNtNtCs5HYdw2IoCB0_4core7unicode12unicode_data1n11lookup_slow>
    8be0:	e3500000 	cmp	r0, #0
    8be4:	1affff71 	bne	89b0 <_RINvXse_NtCsimG8iQ5CXkH_3nom8internalNvNtNtCscA5RF7Ru5It_7pi_side8language5parse16parse_identifierINtB6_6ParserReE7processINtB6_7OutputMNtB6_4EmitB2a_NtB6_9StreamingEEBF_+0x98>
    8be8:	eaffffd3 	b	8b3c <_RINvXse_NtCsimG8iQ5CXkH_3nom8internalNvNtNtCscA5RF7Ru5It_7pi_side8language5parse16parse_identifierINtB6_6ParserReE7processINtB6_7OutputMNtB6_4EmitB2a_NtB6_9StreamingEEBF_+0x224>
    8bec:	e3570000 	cmp	r7, #0
    8bf0:	0a00006d 	beq	8dac <_RINvXse_NtCsimG8iQ5CXkH_3nom8internalNvNtNtCscA5RF7Ru5It_7pi_side8language5parse16parse_identifierINtB6_6ParserReE7processINtB6_7OutputMNtB6_4EmitB2a_NtB6_9StreamingEEBF_+0x494>
    8bf4:	e59da00c 	ldr	sl, [sp, #12]
    8bf8:	e59d8008 	ldr	r8, [sp, #8]
    8bfc:	e08a5007 	add	r5, sl, r7
    8c00:	e048b007 	sub	fp, r8, r7
    8c04:	e3570005 	cmp	r7, #5
    8c08:	1affffb1 	bne	8ad4 <_RINvXse_NtCsimG8iQ5CXkH_3nom8internalNvNtNtCscA5RF7Ru5It_7pi_side8language5parse16parse_identifierINtB6_6ParserReE7processINtB6_7OutputMNtB6_4EmitB2a_NtB6_9StreamingEEBF_+0x1bc>
    8c0c:	e59d1000 	ldr	r1, [sp]
    8c10:	e2410041 	sub	r0, r1, #65	@ 0x41
    8c14:	e350001a 	cmp	r0, #26
    8c18:	33811020 	orrcc	r1, r1, #32
    8c1c:	e3510066 	cmp	r1, #102	@ 0x66
    8c20:	1a00001a 	bne	8c90 <_RINvXse_NtCsimG8iQ5CXkH_3nom8internalNvNtNtCscA5RF7Ru5It_7pi_side8language5parse16parse_identifierINtB6_6ParserReE7processINtB6_7OutputMNtB6_4EmitB2a_NtB6_9StreamingEEBF_+0x378>
    8c24:	e5da0001 	ldrb	r0, [sl, #1]
    8c28:	e2401041 	sub	r1, r0, #65	@ 0x41
    8c2c:	e351001a 	cmp	r1, #26
    8c30:	33800020 	orrcc	r0, r0, #32
    8c34:	e3500061 	cmp	r0, #97	@ 0x61
    8c38:	1a000014 	bne	8c90 <_RINvXse_NtCsimG8iQ5CXkH_3nom8internalNvNtNtCscA5RF7Ru5It_7pi_side8language5parse16parse_identifierINtB6_6ParserReE7processINtB6_7OutputMNtB6_4EmitB2a_NtB6_9StreamingEEBF_+0x378>
    8c3c:	e5da0002 	ldrb	r0, [sl, #2]
    8c40:	e2401041 	sub	r1, r0, #65	@ 0x41
    8c44:	e351001a 	cmp	r1, #26
    8c48:	33800020 	orrcc	r0, r0, #32
    8c4c:	e350006c 	cmp	r0, #108	@ 0x6c
    8c50:	1a00000e 	bne	8c90 <_RINvXse_NtCsimG8iQ5CXkH_3nom8internalNvNtNtCscA5RF7Ru5It_7pi_side8language5parse16parse_identifierINtB6_6ParserReE7processINtB6_7OutputMNtB6_4EmitB2a_NtB6_9StreamingEEBF_+0x378>
    8c54:	e5da0003 	ldrb	r0, [sl, #3]
    8c58:	e2401041 	sub	r1, r0, #65	@ 0x41
    8c5c:	e351001a 	cmp	r1, #26
    8c60:	33800020 	orrcc	r0, r0, #32
    8c64:	e3500073 	cmp	r0, #115	@ 0x73
    8c68:	1a000008 	bne	8c90 <_RINvXse_NtCsimG8iQ5CXkH_3nom8internalNvNtNtCscA5RF7Ru5It_7pi_side8language5parse16parse_identifierINtB6_6ParserReE7processINtB6_7OutputMNtB6_4EmitB2a_NtB6_9StreamingEEBF_+0x378>
    8c6c:	e5da0004 	ldrb	r0, [sl, #4]
    8c70:	e2401041 	sub	r1, r0, #65	@ 0x41
    8c74:	e351001a 	cmp	r1, #26
    8c78:	33800020 	orrcc	r0, r0, #32
    8c7c:	e3500065 	cmp	r0, #101	@ 0x65
    8c80:	1a000002 	bne	8c90 <_RINvXse_NtCsimG8iQ5CXkH_3nom8internalNvNtNtCscA5RF7Ru5It_7pi_side8language5parse16parse_identifierINtB6_6ParserReE7processINtB6_7OutputMNtB6_4EmitB2a_NtB6_9StreamingEEBF_+0x378>
    8c84:	e3a0a001 	mov	sl, #1
    8c88:	e3a01000 	mov	r1, #0
    8c8c:	ea00003c 	b	8d84 <_RINvXse_NtCsimG8iQ5CXkH_3nom8internalNvNtNtCscA5RF7Ru5It_7pi_side8language5parse16parse_identifierINtB6_6ParserReE7processINtB6_7OutputMNtB6_4EmitB2a_NtB6_9StreamingEEBF_+0x46c>
    8c90:	e1a0000a 	mov	r0, sl
    8c94:	e1a01007 	mov	r1, r7
    8c98:	eb00103d 	bl	cd94 <_RNvMNtNtCscA5RF7Ru5It_7pi_side8language7specialNtB2_7Special9from_name>
    8c9c:	e1a01000 	mov	r1, r0
    8ca0:	e1e00000 	mvn	r0, r0
    8ca4:	e31000ff 	tst	r0, #255	@ 0xff
    8ca8:	0a000001 	beq	8cb4 <_RINvXse_NtCsimG8iQ5CXkH_3nom8internalNvNtNtCscA5RF7Ru5It_7pi_side8language5parse16parse_identifierINtB6_6ParserReE7processINtB6_7OutputMNtB6_4EmitB2a_NtB6_9StreamingEEBF_+0x39c>
    8cac:	e3a0a003 	mov	sl, #3
    8cb0:	ea000033 	b	8d84 <_RINvXse_NtCsimG8iQ5CXkH_3nom8internalNvNtNtCscA5RF7Ru5It_7pi_side8language5parse16parse_identifierINtB6_6ParserReE7processINtB6_7OutputMNtB6_4EmitB2a_NtB6_9StreamingEEBF_+0x46c>
    8cb4:	e3570021 	cmp	r7, #33	@ 0x21
    8cb8:	3a000003 	bcc	8ccc <_RINvXse_NtCsimG8iQ5CXkH_3nom8internalNvNtNtCscA5RF7Ru5It_7pi_side8language5parse16parse_identifierINtB6_6ParserReE7processINtB6_7OutputMNtB6_4EmitB2a_NtB6_9StreamingEEBF_+0x3b4>
    8cbc:	e59d4004 	ldr	r4, [sp, #4]
    8cc0:	e3a05030 	mov	r5, #48	@ 0x30
    8cc4:	e3a00002 	mov	r0, #2
    8cc8:	ea00003a 	b	8db8 <_RINvXse_NtCsimG8iQ5CXkH_3nom8internalNvNtNtCscA5RF7Ru5It_7pi_side8language5parse16parse_identifierINtB6_6ParserReE7processINtB6_7OutputMNtB6_4EmitB2a_NtB6_9StreamingEEBF_+0x4a0>
    8ccc:	e28d8028 	add	r8, sp, #40	@ 0x28
    8cd0:	e1a0100a 	mov	r1, sl
    8cd4:	e1a02007 	mov	r2, r7
    8cd8:	e1a00008 	mov	r0, r8
    8cdc:	eb00607a 	bl	20ecc <__aeabi_memcpy>
    8ce0:	e59d0028 	ldr	r0, [sp, #40]	@ 0x28
    8ce4:	e288c00c 	add	ip, r8, #12
    8ce8:	e58d000c 	str	r0, [sp, #12]
    8cec:	e28d8010 	add	r8, sp, #16
    8cf0:	e59d002c 	ldr	r0, [sp, #44]	@ 0x2c
    8cf4:	e58d0008 	str	r0, [sp, #8]
    8cf8:	e5dd0032 	ldrb	r0, [sp, #50]	@ 0x32
    8cfc:	e5dd1031 	ldrb	r1, [sp, #49]	@ 0x31
    8d00:	e5dd2033 	ldrb	r2, [sp, #51]	@ 0x33
    8d04:	e1810400 	orr	r0, r1, r0, lsl #8
    8d08:	e5cd2026 	strb	r2, [sp, #38]	@ 0x26
    8d0c:	e1cd02b4 	strh	r0, [sp, #36]	@ 0x24
    8d10:	e1a01008 	mov	r1, r8
    8d14:	e5dd9030 	ldrb	r9, [sp, #48]	@ 0x30
    8d18:	e89c005d 	ldm	ip, {r0, r2, r3, r4, r6}
    8d1c:	e881005d 	stm	r1, {r0, r2, r3, r4, r6}
    8d20:	eb004eae 	bl	1c7e0 <_RNvCs7urVXOUFJf8_7___rustc35___rust_no_alloc_shim_is_unstable_v2>
    8d24:	e59f00c0 	ldr	r0, [pc, #192]	@ 8dec <_RINvXse_NtCsimG8iQ5CXkH_3nom8internalNvNtNtCscA5RF7Ru5It_7pi_side8language5parse16parse_identifierINtB6_6ParserReE7processINtB6_7OutputMNtB6_4EmitB2a_NtB6_9StreamingEEBF_+0x4d4>
    8d28:	e3a01004 	mov	r1, #4
    8d2c:	e3a0202c 	mov	r2, #44	@ 0x2c
    8d30:	e3a0a004 	mov	sl, #4
    8d34:	eb004ed5 	bl	1c890 <_RNvXs_NtCs902aIDM3RvW_14embedded_alloc4llffNtB4_4HeapNtNtNtCs5HYdw2IoCB0_4core5alloc6global11GlobalAlloc5alloc>
    8d38:	e3500000 	cmp	r0, #0
    8d3c:	0a000025 	beq	8dd8 <_RINvXse_NtCsimG8iQ5CXkH_3nom8internalNvNtNtCscA5RF7Ru5It_7pi_side8language5parse16parse_identifierINtB6_6ParserReE7processINtB6_7OutputMNtB6_4EmitB2a_NtB6_9StreamingEEBF_+0x4c0>
    8d40:	e3a06001 	mov	r6, #1
    8d44:	e5dd1024 	ldrb	r1, [sp, #36]	@ 0x24
    8d48:	e98000c0 	stmib	r0, {r6, r7}
    8d4c:	e59d700c 	ldr	r7, [sp, #12]
    8d50:	e5dd2025 	ldrb	r2, [sp, #37]	@ 0x25
    8d54:	e5dd3026 	ldrb	r3, [sp, #38]	@ 0x26
    8d58:	e580700c 	str	r7, [r0, #12]
    8d5c:	e59d7008 	ldr	r7, [sp, #8]
    8d60:	e5c01015 	strb	r1, [r0, #21]
    8d64:	e2801018 	add	r1, r0, #24
    8d68:	e5c09014 	strb	r9, [r0, #20]
    8d6c:	e5806000 	str	r6, [r0]
    8d70:	e5807010 	str	r7, [r0, #16]
    8d74:	e5c02016 	strb	r2, [r0, #22]
    8d78:	e5c03017 	strb	r3, [r0, #23]
    8d7c:	e89800dc 	ldm	r8, {r2, r3, r4, r6, r7}
    8d80:	e88100dc 	stm	r1, {r2, r3, r4, r6, r7}
    8d84:	e59d3004 	ldr	r3, [sp, #4]
    8d88:	e3a02000 	mov	r2, #0
    8d8c:	e8830820 	stm	r3, {r5, fp}
    8d90:	e5832014 	str	r2, [r3, #20]
    8d94:	e5832018 	str	r2, [r3, #24]
    8d98:	e583000c 	str	r0, [r3, #12]
    8d9c:	e5c31009 	strb	r1, [r3, #9]
    8da0:	e5c3a008 	strb	sl, [r3, #8]
    8da4:	e28dd04c 	add	sp, sp, #76	@ 0x4c
    8da8:	e8bd8ff0 	pop	{r4, r5, r6, r7, r8, r9, sl, fp, pc}
    8dac:	e99d0510 	ldmib	sp, {r4, r8, sl}
    8db0:	e3a05024 	mov	r5, #36	@ 0x24
    8db4:	e3a00001 	mov	r0, #1
    8db8:	e3a010ff 	mov	r1, #255	@ 0xff
    8dbc:	e584000c 	str	r0, [r4, #12]
    8dc0:	e5c41008 	strb	r1, [r4, #8]
    8dc4:	e584a010 	str	sl, [r4, #16]
    8dc8:	e5848014 	str	r8, [r4, #20]
    8dcc:	e5845018 	str	r5, [r4, #24]
    8dd0:	e28dd04c 	add	sp, sp, #76	@ 0x4c
    8dd4:	e8bd8ff0 	pop	{r4, r5, r6, r7, r8, r9, sl, fp, pc}
    8dd8:	e3a00004 	mov	r0, #4
    8ddc:	e3a0102c 	mov	r1, #44	@ 0x2c
    8de0:	eb00527f 	bl	1d7e4 <_RNvNtCs3SSNe1yeMmP_5alloc5alloc18handle_alloc_error>
    8de4:	001fffdf 	.word	0x001fffdf
    8de8:	40005001 	.word	0x40005001
    8dec:	03c50898 	.word	0x03c50898

00008df0 <_RNvMsB_NtCs5HYdw2IoCB0_4core3numm16from_ascii_radix>:
    8df0:	e3520001 	cmp	r2, #1
    8df4:	0a000006 	beq	8e14 <_RNvMsB_NtCs5HYdw2IoCB0_4core3numm16from_ascii_radix+0x24>
    8df8:	e3520000 	cmp	r2, #0
    8dfc:	1a00000c 	bne	8e34 <_RNvMsB_NtCs5HYdw2IoCB0_4core3numm16from_ascii_radix+0x44>
    8e00:	e3a01000 	mov	r1, #0
    8e04:	e5c01001 	strb	r1, [r0, #1]
    8e08:	e3a01001 	mov	r1, #1
    8e0c:	e5c01000 	strb	r1, [r0]
    8e10:	e12fff1e 	bx	lr
    8e14:	e5d1c000 	ldrb	ip, [r1]
    8e18:	e35c002d 	cmp	ip, #45	@ 0x2d
    8e1c:	135c002b 	cmpne	ip, #43	@ 0x2b
    8e20:	03a01001 	moveq	r1, #1
    8e24:	05c01001 	strbeq	r1, [r0, #1]
    8e28:	05c01000 	strbeq	r1, [r0]
    8e2c:	012fff1e 	bxeq	lr
    8e30:	ea000000 	b	8e38 <_RNvMsB_NtCs5HYdw2IoCB0_4core3numm16from_ascii_radix+0x48>
    8e34:	e5d1c000 	ldrb	ip, [r1]
    8e38:	e92d4830 	push	{r4, r5, fp, lr}
    8e3c:	e35c002b 	cmp	ip, #43	@ 0x2b
    8e40:	02811001 	addeq	r1, r1, #1
    8e44:	02422001 	subeq	r2, r2, #1
    8e48:	e3520009 	cmp	r2, #9
    8e4c:	2a000037 	bcs	8f30 <_RNvMsB_NtCs5HYdw2IoCB0_4core3numm16from_ascii_radix+0x140>
    8e50:	e3520000 	cmp	r2, #0
    8e54:	0a000043 	beq	8f68 <_RNvMsB_NtCs5HYdw2IoCB0_4core3numm16from_ascii_radix+0x178>
    8e58:	e5d15000 	ldrb	r5, [r1]
    8e5c:	e245c030 	sub	ip, r5, #48	@ 0x30
    8e60:	e15c0003 	cmp	ip, r3
    8e64:	2a00004d 	bcs	8fa0 <_RNvMsB_NtCs5HYdw2IoCB0_4core3numm16from_ascii_radix+0x1b0>
    8e68:	e3520001 	cmp	r2, #1
    8e6c:	0a00003e 	beq	8f6c <_RNvMsB_NtCs5HYdw2IoCB0_4core3numm16from_ascii_radix+0x17c>
    8e70:	e5d15001 	ldrb	r5, [r1, #1]
    8e74:	e245e030 	sub	lr, r5, #48	@ 0x30
    8e78:	e15e0003 	cmp	lr, r3
    8e7c:	2a000047 	bcs	8fa0 <_RNvMsB_NtCs5HYdw2IoCB0_4core3numm16from_ascii_radix+0x1b0>
    8e80:	e02ce39c 	mla	ip, ip, r3, lr
    8e84:	e3520002 	cmp	r2, #2
    8e88:	0a000037 	beq	8f6c <_RNvMsB_NtCs5HYdw2IoCB0_4core3numm16from_ascii_radix+0x17c>
    8e8c:	e5d15002 	ldrb	r5, [r1, #2]
    8e90:	e245e030 	sub	lr, r5, #48	@ 0x30
    8e94:	e15e0003 	cmp	lr, r3
    8e98:	2a000040 	bcs	8fa0 <_RNvMsB_NtCs5HYdw2IoCB0_4core3numm16from_ascii_radix+0x1b0>
    8e9c:	e02ce39c 	mla	ip, ip, r3, lr
    8ea0:	e3520003 	cmp	r2, #3
    8ea4:	0a000030 	beq	8f6c <_RNvMsB_NtCs5HYdw2IoCB0_4core3numm16from_ascii_radix+0x17c>
    8ea8:	e5d15003 	ldrb	r5, [r1, #3]
    8eac:	e245e030 	sub	lr, r5, #48	@ 0x30
    8eb0:	e15e0003 	cmp	lr, r3
    8eb4:	2a000039 	bcs	8fa0 <_RNvMsB_NtCs5HYdw2IoCB0_4core3numm16from_ascii_radix+0x1b0>
    8eb8:	e02ce39c 	mla	ip, ip, r3, lr
    8ebc:	e3520004 	cmp	r2, #4
    8ec0:	0a000029 	beq	8f6c <_RNvMsB_NtCs5HYdw2IoCB0_4core3numm16from_ascii_radix+0x17c>
    8ec4:	e5d15004 	ldrb	r5, [r1, #4]
    8ec8:	e245e030 	sub	lr, r5, #48	@ 0x30
    8ecc:	e15e0003 	cmp	lr, r3
    8ed0:	2a000032 	bcs	8fa0 <_RNvMsB_NtCs5HYdw2IoCB0_4core3numm16from_ascii_radix+0x1b0>
    8ed4:	e02ce39c 	mla	ip, ip, r3, lr
    8ed8:	e3520005 	cmp	r2, #5
    8edc:	0a000022 	beq	8f6c <_RNvMsB_NtCs5HYdw2IoCB0_4core3numm16from_ascii_radix+0x17c>
    8ee0:	e5d15005 	ldrb	r5, [r1, #5]
    8ee4:	e245e030 	sub	lr, r5, #48	@ 0x30
    8ee8:	e15e0003 	cmp	lr, r3
    8eec:	2a00002b 	bcs	8fa0 <_RNvMsB_NtCs5HYdw2IoCB0_4core3numm16from_ascii_radix+0x1b0>
    8ef0:	e02ce39c 	mla	ip, ip, r3, lr
    8ef4:	e3520006 	cmp	r2, #6
    8ef8:	0a00001b 	beq	8f6c <_RNvMsB_NtCs5HYdw2IoCB0_4core3numm16from_ascii_radix+0x17c>
    8efc:	e5d15006 	ldrb	r5, [r1, #6]
    8f00:	e245e030 	sub	lr, r5, #48	@ 0x30
    8f04:	e15e0003 	cmp	lr, r3
    8f08:	2a000024 	bcs	8fa0 <_RNvMsB_NtCs5HYdw2IoCB0_4core3numm16from_ascii_radix+0x1b0>
    8f0c:	e02ce39c 	mla	ip, ip, r3, lr
    8f10:	e3520007 	cmp	r2, #7
    8f14:	0a000014 	beq	8f6c <_RNvMsB_NtCs5HYdw2IoCB0_4core3numm16from_ascii_radix+0x17c>
    8f18:	e5d11007 	ldrb	r1, [r1, #7]
    8f1c:	e2411030 	sub	r1, r1, #48	@ 0x30
    8f20:	e1510003 	cmp	r1, r3
    8f24:	2a00001d 	bcs	8fa0 <_RNvMsB_NtCs5HYdw2IoCB0_4core3numm16from_ascii_radix+0x1b0>
    8f28:	e02c139c 	mla	ip, ip, r3, r1
    8f2c:	ea00000e 	b	8f6c <_RNvMsB_NtCs5HYdw2IoCB0_4core3numm16from_ascii_radix+0x17c>
    8f30:	e3a0c000 	mov	ip, #0
    8f34:	e3520000 	cmp	r2, #0
    8f38:	0a00000b 	beq	8f6c <_RNvMsB_NtCs5HYdw2IoCB0_4core3numm16from_ascii_radix+0x17c>
    8f3c:	e085c39c 	umull	ip, r5, ip, r3
    8f40:	e4d14001 	ldrb	r4, [r1], #1
    8f44:	e244e030 	sub	lr, r4, #48	@ 0x30
    8f48:	e3550000 	cmp	r5, #0
    8f4c:	1a00000b 	bne	8f80 <_RNvMsB_NtCs5HYdw2IoCB0_4core3numm16from_ascii_radix+0x190>
    8f50:	e15e0003 	cmp	lr, r3
    8f54:	2a000011 	bcs	8fa0 <_RNvMsB_NtCs5HYdw2IoCB0_4core3numm16from_ascii_radix+0x1b0>
    8f58:	e09ec00c 	adds	ip, lr, ip
    8f5c:	e2422001 	sub	r2, r2, #1
    8f60:	3afffff3 	bcc	8f34 <_RNvMsB_NtCs5HYdw2IoCB0_4core3numm16from_ascii_radix+0x144>
    8f64:	ea000007 	b	8f88 <_RNvMsB_NtCs5HYdw2IoCB0_4core3numm16from_ascii_radix+0x198>
    8f68:	e3a0c000 	mov	ip, #0
    8f6c:	e580c004 	str	ip, [r0, #4]
    8f70:	e3a01000 	mov	r1, #0
    8f74:	e8bd4830 	pop	{r4, r5, fp, lr}
    8f78:	e5c01000 	strb	r1, [r0]
    8f7c:	e12fff1e 	bx	lr
    8f80:	e15e0003 	cmp	lr, r3
    8f84:	2a000005 	bcs	8fa0 <_RNvMsB_NtCs5HYdw2IoCB0_4core3numm16from_ascii_radix+0x1b0>
    8f88:	e3a01002 	mov	r1, #2
    8f8c:	e5c01001 	strb	r1, [r0, #1]
    8f90:	e3a01001 	mov	r1, #1
    8f94:	e8bd4830 	pop	{r4, r5, fp, lr}
    8f98:	e5c01000 	strb	r1, [r0]
    8f9c:	e12fff1e 	bx	lr
    8fa0:	e3a01001 	mov	r1, #1
    8fa4:	e5c01001 	strb	r1, [r0, #1]
    8fa8:	e8bd4830 	pop	{r4, r5, fp, lr}
    8fac:	e5c01000 	strb	r1, [r0]
    8fb0:	e12fff1e 	bx	lr

00008fb4 <_RNvMsp_NtCs5HYdw2IoCB0_4core3numl16from_ascii_radix>:
    8fb4:	e3520001 	cmp	r2, #1
    8fb8:	0a000006 	beq	8fd8 <_RNvMsp_NtCs5HYdw2IoCB0_4core3numl16from_ascii_radix+0x24>
    8fbc:	e3520000 	cmp	r2, #0
    8fc0:	1a00000c 	bne	8ff8 <_RNvMsp_NtCs5HYdw2IoCB0_4core3numl16from_ascii_radix+0x44>
    8fc4:	e3a01000 	mov	r1, #0
    8fc8:	e5c01001 	strb	r1, [r0, #1]
    8fcc:	e3a01001 	mov	r1, #1
    8fd0:	e5c01000 	strb	r1, [r0]
    8fd4:	e12fff1e 	bx	lr
    8fd8:	e5d1c000 	ldrb	ip, [r1]
    8fdc:	e35c002d 	cmp	ip, #45	@ 0x2d
    8fe0:	135c002b 	cmpne	ip, #43	@ 0x2b
    8fe4:	03a01001 	moveq	r1, #1
    8fe8:	05c01001 	strbeq	r1, [r0, #1]
    8fec:	05c01000 	strbeq	r1, [r0]
    8ff0:	012fff1e 	bxeq	lr
    8ff4:	ea000000 	b	8ffc <_RNvMsp_NtCs5HYdw2IoCB0_4core3numl16from_ascii_radix+0x48>
    8ff8:	e5d1c000 	ldrb	ip, [r1]
    8ffc:	e92d48f0 	push	{r4, r5, r6, r7, fp, lr}
    9000:	e35c002d 	cmp	ip, #45	@ 0x2d
    9004:	0a000052 	beq	9154 <_RNvMsp_NtCs5HYdw2IoCB0_4core3numl16from_ascii_radix+0x1a0>
    9008:	e35c002b 	cmp	ip, #43	@ 0x2b
    900c:	02422001 	subeq	r2, r2, #1
    9010:	02811001 	addeq	r1, r1, #1
    9014:	e3520008 	cmp	r2, #8
    9018:	2a000081 	bcs	9224 <_RNvMsp_NtCs5HYdw2IoCB0_4core3numl16from_ascii_radix+0x270>
    901c:	e3520000 	cmp	r2, #0
    9020:	0a000093 	beq	9274 <_RNvMsp_NtCs5HYdw2IoCB0_4core3numl16from_ascii_radix+0x2c0>
    9024:	e5d14000 	ldrb	r4, [r1]
    9028:	e353000a 	cmp	r3, #10
    902c:	9a000096 	bls	928c <_RNvMsp_NtCs5HYdw2IoCB0_4core3numl16from_ascii_radix+0x2d8>
    9030:	e2447041 	sub	r7, r4, #65	@ 0x41
    9034:	e244c030 	sub	ip, r4, #48	@ 0x30
    9038:	e3c77020 	bic	r7, r7, #32
    903c:	e3540039 	cmp	r4, #57	@ 0x39
    9040:	8287c00a 	addhi	ip, r7, #10
    9044:	e15c0003 	cmp	ip, r3
    9048:	2a0000c9 	bcs	9374 <_RNvMsp_NtCs5HYdw2IoCB0_4core3numl16from_ascii_radix+0x3c0>
    904c:	e3520001 	cmp	r2, #1
    9050:	0a000088 	beq	9278 <_RNvMsp_NtCs5HYdw2IoCB0_4core3numl16from_ascii_radix+0x2c4>
    9054:	e5d17001 	ldrb	r7, [r1, #1]
    9058:	e2476041 	sub	r6, r7, #65	@ 0x41
    905c:	e2474030 	sub	r4, r7, #48	@ 0x30
    9060:	e3c66020 	bic	r6, r6, #32
    9064:	e3570039 	cmp	r7, #57	@ 0x39
    9068:	8286400a 	addhi	r4, r6, #10
    906c:	e1540003 	cmp	r4, r3
    9070:	2a0000bf 	bcs	9374 <_RNvMsp_NtCs5HYdw2IoCB0_4core3numl16from_ascii_radix+0x3c0>
    9074:	e02c439c 	mla	ip, ip, r3, r4
    9078:	e3520002 	cmp	r2, #2
    907c:	0a00007d 	beq	9278 <_RNvMsp_NtCs5HYdw2IoCB0_4core3numl16from_ascii_radix+0x2c4>
    9080:	e5d17002 	ldrb	r7, [r1, #2]
    9084:	e2476041 	sub	r6, r7, #65	@ 0x41
    9088:	e2474030 	sub	r4, r7, #48	@ 0x30
    908c:	e3c66020 	bic	r6, r6, #32
    9090:	e3570039 	cmp	r7, #57	@ 0x39
    9094:	8286400a 	addhi	r4, r6, #10
    9098:	e1540003 	cmp	r4, r3
    909c:	2a0000b4 	bcs	9374 <_RNvMsp_NtCs5HYdw2IoCB0_4core3numl16from_ascii_radix+0x3c0>
    90a0:	e02c439c 	mla	ip, ip, r3, r4
    90a4:	e3520003 	cmp	r2, #3
    90a8:	0a000072 	beq	9278 <_RNvMsp_NtCs5HYdw2IoCB0_4core3numl16from_ascii_radix+0x2c4>
    90ac:	e5d17003 	ldrb	r7, [r1, #3]
    90b0:	e2476041 	sub	r6, r7, #65	@ 0x41
    90b4:	e2474030 	sub	r4, r7, #48	@ 0x30
    90b8:	e3c66020 	bic	r6, r6, #32
    90bc:	e3570039 	cmp	r7, #57	@ 0x39
    90c0:	8286400a 	addhi	r4, r6, #10
    90c4:	e1540003 	cmp	r4, r3
    90c8:	2a0000a9 	bcs	9374 <_RNvMsp_NtCs5HYdw2IoCB0_4core3numl16from_ascii_radix+0x3c0>
    90cc:	e02c439c 	mla	ip, ip, r3, r4
    90d0:	e3520004 	cmp	r2, #4
    90d4:	0a000067 	beq	9278 <_RNvMsp_NtCs5HYdw2IoCB0_4core3numl16from_ascii_radix+0x2c4>
    90d8:	e5d17004 	ldrb	r7, [r1, #4]
    90dc:	e2476041 	sub	r6, r7, #65	@ 0x41
    90e0:	e2474030 	sub	r4, r7, #48	@ 0x30
    90e4:	e3c66020 	bic	r6, r6, #32
    90e8:	e3570039 	cmp	r7, #57	@ 0x39
    90ec:	8286400a 	addhi	r4, r6, #10
    90f0:	e1540003 	cmp	r4, r3
    90f4:	2a00009e 	bcs	9374 <_RNvMsp_NtCs5HYdw2IoCB0_4core3numl16from_ascii_radix+0x3c0>
    90f8:	e02c439c 	mla	ip, ip, r3, r4
    90fc:	e3520005 	cmp	r2, #5
    9100:	0a00005c 	beq	9278 <_RNvMsp_NtCs5HYdw2IoCB0_4core3numl16from_ascii_radix+0x2c4>
    9104:	e5d17005 	ldrb	r7, [r1, #5]
    9108:	e2476041 	sub	r6, r7, #65	@ 0x41
    910c:	e2474030 	sub	r4, r7, #48	@ 0x30
    9110:	e3c66020 	bic	r6, r6, #32
    9114:	e3570039 	cmp	r7, #57	@ 0x39
    9118:	8286400a 	addhi	r4, r6, #10
    911c:	e1540003 	cmp	r4, r3
    9120:	2a000093 	bcs	9374 <_RNvMsp_NtCs5HYdw2IoCB0_4core3numl16from_ascii_radix+0x3c0>
    9124:	e02c439c 	mla	ip, ip, r3, r4
    9128:	e3520006 	cmp	r2, #6
    912c:	0a000051 	beq	9278 <_RNvMsp_NtCs5HYdw2IoCB0_4core3numl16from_ascii_radix+0x2c4>
    9130:	e5d12006 	ldrb	r2, [r1, #6]
    9134:	e2427041 	sub	r7, r2, #65	@ 0x41
    9138:	e2421030 	sub	r1, r2, #48	@ 0x30
    913c:	e3c77020 	bic	r7, r7, #32
    9140:	e3520039 	cmp	r2, #57	@ 0x39
    9144:	8287100a 	addhi	r1, r7, #10
    9148:	e1510003 	cmp	r1, r3
    914c:	3a00007a 	bcc	933c <_RNvMsp_NtCs5HYdw2IoCB0_4core3numl16from_ascii_radix+0x388>
    9150:	ea000087 	b	9374 <_RNvMsp_NtCs5HYdw2IoCB0_4core3numl16from_ascii_radix+0x3c0>
    9154:	e242e001 	sub	lr, r2, #1
    9158:	e2814001 	add	r4, r1, #1
    915c:	e3a0c000 	mov	ip, #0
    9160:	e3520009 	cmp	r2, #9
    9164:	2a000011 	bcs	91b0 <_RNvMsp_NtCs5HYdw2IoCB0_4core3numl16from_ascii_radix+0x1fc>
    9168:	e35e0000 	cmp	lr, #0
    916c:	0a000041 	beq	9278 <_RNvMsp_NtCs5HYdw2IoCB0_4core3numl16from_ascii_radix+0x2c4>
    9170:	e353000a 	cmp	r3, #10
    9174:	9a000020 	bls	91fc <_RNvMsp_NtCs5HYdw2IoCB0_4core3numl16from_ascii_radix+0x248>
    9178:	e5d42000 	ldrb	r2, [r4]
    917c:	e2425041 	sub	r5, r2, #65	@ 0x41
    9180:	e2421030 	sub	r1, r2, #48	@ 0x30
    9184:	e3c55020 	bic	r5, r5, #32
    9188:	e3520039 	cmp	r2, #57	@ 0x39
    918c:	8285100a 	addhi	r1, r5, #10
    9190:	e1510003 	cmp	r1, r3
    9194:	2a000076 	bcs	9374 <_RNvMsp_NtCs5HYdw2IoCB0_4core3numl16from_ascii_radix+0x3c0>
    9198:	e002039c 	mul	r2, ip, r3
    919c:	e2844001 	add	r4, r4, #1
    91a0:	e25ee001 	subs	lr, lr, #1
    91a4:	e042c001 	sub	ip, r2, r1
    91a8:	1afffff2 	bne	9178 <_RNvMsp_NtCs5HYdw2IoCB0_4core3numl16from_ascii_radix+0x1c4>
    91ac:	ea000031 	b	9278 <_RNvMsp_NtCs5HYdw2IoCB0_4core3numl16from_ascii_radix+0x2c4>
    91b0:	e4d41001 	ldrb	r1, [r4], #1
    91b4:	e0cc239c 	smull	r2, ip, ip, r3
    91b8:	e2415030 	sub	r5, r1, #48	@ 0x30
    91bc:	e2416041 	sub	r6, r1, #65	@ 0x41
    91c0:	e3510039 	cmp	r1, #57	@ 0x39
    91c4:	e3c66020 	bic	r6, r6, #32
    91c8:	e1a01005 	mov	r1, r5
    91cc:	8286100a 	addhi	r1, r6, #10
    91d0:	e353000a 	cmp	r3, #10
    91d4:	91a01005 	movls	r1, r5
    91d8:	e15c0fc2 	cmp	ip, r2, asr #31
    91dc:	1a00005c 	bne	9354 <_RNvMsp_NtCs5HYdw2IoCB0_4core3numl16from_ascii_radix+0x3a0>
    91e0:	e1510003 	cmp	r1, r3
    91e4:	2a000062 	bcs	9374 <_RNvMsp_NtCs5HYdw2IoCB0_4core3numl16from_ascii_radix+0x3c0>
    91e8:	e052c001 	subs	ip, r2, r1
    91ec:	6a00005a 	bvs	935c <_RNvMsp_NtCs5HYdw2IoCB0_4core3numl16from_ascii_radix+0x3a8>
    91f0:	e25ee001 	subs	lr, lr, #1
    91f4:	1affffed 	bne	91b0 <_RNvMsp_NtCs5HYdw2IoCB0_4core3numl16from_ascii_radix+0x1fc>
    91f8:	ea00001e 	b	9278 <_RNvMsp_NtCs5HYdw2IoCB0_4core3numl16from_ascii_radix+0x2c4>
    91fc:	e5d41000 	ldrb	r1, [r4]
    9200:	e2411030 	sub	r1, r1, #48	@ 0x30
    9204:	e1510003 	cmp	r1, r3
    9208:	2a000059 	bcs	9374 <_RNvMsp_NtCs5HYdw2IoCB0_4core3numl16from_ascii_radix+0x3c0>
    920c:	e002039c 	mul	r2, ip, r3
    9210:	e2844001 	add	r4, r4, #1
    9214:	e25ee001 	subs	lr, lr, #1
    9218:	e042c001 	sub	ip, r2, r1
    921c:	1afffff6 	bne	91fc <_RNvMsp_NtCs5HYdw2IoCB0_4core3numl16from_ascii_radix+0x248>
    9220:	ea000014 	b	9278 <_RNvMsp_NtCs5HYdw2IoCB0_4core3numl16from_ascii_radix+0x2c4>
    9224:	e3a0c000 	mov	ip, #0
    9228:	e4d16001 	ldrb	r6, [r1], #1
    922c:	e0cec39c 	smull	ip, lr, ip, r3
    9230:	e2465030 	sub	r5, r6, #48	@ 0x30
    9234:	e2464041 	sub	r4, r6, #65	@ 0x41
    9238:	e3560039 	cmp	r6, #57	@ 0x39
    923c:	e3c47020 	bic	r7, r4, #32
    9240:	e1a04005 	mov	r4, r5
    9244:	8287400a 	addhi	r4, r7, #10
    9248:	e353000a 	cmp	r3, #10
    924c:	91a04005 	movls	r4, r5
    9250:	e15e0fcc 	cmp	lr, ip, asr #31
    9254:	1a00003a 	bne	9344 <_RNvMsp_NtCs5HYdw2IoCB0_4core3numl16from_ascii_radix+0x390>
    9258:	e1540003 	cmp	r4, r3
    925c:	2a000044 	bcs	9374 <_RNvMsp_NtCs5HYdw2IoCB0_4core3numl16from_ascii_radix+0x3c0>
    9260:	e09cc004 	adds	ip, ip, r4
    9264:	6a000038 	bvs	934c <_RNvMsp_NtCs5HYdw2IoCB0_4core3numl16from_ascii_radix+0x398>
    9268:	e2522001 	subs	r2, r2, #1
    926c:	1affffed 	bne	9228 <_RNvMsp_NtCs5HYdw2IoCB0_4core3numl16from_ascii_radix+0x274>
    9270:	ea000000 	b	9278 <_RNvMsp_NtCs5HYdw2IoCB0_4core3numl16from_ascii_radix+0x2c4>
    9274:	e3a0c000 	mov	ip, #0
    9278:	e580c004 	str	ip, [r0, #4]
    927c:	e3a01000 	mov	r1, #0
    9280:	e8bd48f0 	pop	{r4, r5, r6, r7, fp, lr}
    9284:	e5c01000 	strb	r1, [r0]
    9288:	e12fff1e 	bx	lr
    928c:	e244c030 	sub	ip, r4, #48	@ 0x30
    9290:	e15c0003 	cmp	ip, r3
    9294:	2a000036 	bcs	9374 <_RNvMsp_NtCs5HYdw2IoCB0_4core3numl16from_ascii_radix+0x3c0>
    9298:	e3520001 	cmp	r2, #1
    929c:	0afffff5 	beq	9278 <_RNvMsp_NtCs5HYdw2IoCB0_4core3numl16from_ascii_radix+0x2c4>
    92a0:	e5d16001 	ldrb	r6, [r1, #1]
    92a4:	e2464030 	sub	r4, r6, #48	@ 0x30
    92a8:	e1540003 	cmp	r4, r3
    92ac:	2a000030 	bcs	9374 <_RNvMsp_NtCs5HYdw2IoCB0_4core3numl16from_ascii_radix+0x3c0>
    92b0:	e02c439c 	mla	ip, ip, r3, r4
    92b4:	e3520002 	cmp	r2, #2
    92b8:	0affffee 	beq	9278 <_RNvMsp_NtCs5HYdw2IoCB0_4core3numl16from_ascii_radix+0x2c4>
    92bc:	e5d16002 	ldrb	r6, [r1, #2]
    92c0:	e2464030 	sub	r4, r6, #48	@ 0x30
    92c4:	e1540003 	cmp	r4, r3
    92c8:	2a000029 	bcs	9374 <_RNvMsp_NtCs5HYdw2IoCB0_4core3numl16from_ascii_radix+0x3c0>
    92cc:	e02c439c 	mla	ip, ip, r3, r4
    92d0:	e3520003 	cmp	r2, #3
    92d4:	0affffe7 	beq	9278 <_RNvMsp_NtCs5HYdw2IoCB0_4core3numl16from_ascii_radix+0x2c4>
    92d8:	e5d16003 	ldrb	r6, [r1, #3]
    92dc:	e2464030 	sub	r4, r6, #48	@ 0x30
    92e0:	e1540003 	cmp	r4, r3
    92e4:	2a000022 	bcs	9374 <_RNvMsp_NtCs5HYdw2IoCB0_4core3numl16from_ascii_radix+0x3c0>
    92e8:	e02c439c 	mla	ip, ip, r3, r4
    92ec:	e3520004 	cmp	r2, #4
    92f0:	0affffe0 	beq	9278 <_RNvMsp_NtCs5HYdw2IoCB0_4core3numl16from_ascii_radix+0x2c4>
    92f4:	e5d16004 	ldrb	r6, [r1, #4]
    92f8:	e2464030 	sub	r4, r6, #48	@ 0x30
    92fc:	e1540003 	cmp	r4, r3
    9300:	2a00001b 	bcs	9374 <_RNvMsp_NtCs5HYdw2IoCB0_4core3numl16from_ascii_radix+0x3c0>
    9304:	e02c439c 	mla	ip, ip, r3, r4
    9308:	e3520005 	cmp	r2, #5
    930c:	0affffd9 	beq	9278 <_RNvMsp_NtCs5HYdw2IoCB0_4core3numl16from_ascii_radix+0x2c4>
    9310:	e5d16005 	ldrb	r6, [r1, #5]
    9314:	e2464030 	sub	r4, r6, #48	@ 0x30
    9318:	e1540003 	cmp	r4, r3
    931c:	2a000014 	bcs	9374 <_RNvMsp_NtCs5HYdw2IoCB0_4core3numl16from_ascii_radix+0x3c0>
    9320:	e02c439c 	mla	ip, ip, r3, r4
    9324:	e3520006 	cmp	r2, #6
    9328:	0affffd2 	beq	9278 <_RNvMsp_NtCs5HYdw2IoCB0_4core3numl16from_ascii_radix+0x2c4>
    932c:	e5d11006 	ldrb	r1, [r1, #6]
    9330:	e2411030 	sub	r1, r1, #48	@ 0x30
    9334:	e1510003 	cmp	r1, r3
    9338:	2a00000d 	bcs	9374 <_RNvMsp_NtCs5HYdw2IoCB0_4core3numl16from_ascii_radix+0x3c0>
    933c:	e02c139c 	mla	ip, ip, r3, r1
    9340:	eaffffcc 	b	9278 <_RNvMsp_NtCs5HYdw2IoCB0_4core3numl16from_ascii_radix+0x2c4>
    9344:	e1540003 	cmp	r4, r3
    9348:	2a000009 	bcs	9374 <_RNvMsp_NtCs5HYdw2IoCB0_4core3numl16from_ascii_radix+0x3c0>
    934c:	e3a01002 	mov	r1, #2
    9350:	ea000002 	b	9360 <_RNvMsp_NtCs5HYdw2IoCB0_4core3numl16from_ascii_radix+0x3ac>
    9354:	e1510003 	cmp	r1, r3
    9358:	2a000005 	bcs	9374 <_RNvMsp_NtCs5HYdw2IoCB0_4core3numl16from_ascii_radix+0x3c0>
    935c:	e3a01003 	mov	r1, #3
    9360:	e5c01001 	strb	r1, [r0, #1]
    9364:	e3a01001 	mov	r1, #1
    9368:	e8bd48f0 	pop	{r4, r5, r6, r7, fp, lr}
    936c:	e5c01000 	strb	r1, [r0]
    9370:	e12fff1e 	bx	lr
    9374:	e3a01001 	mov	r1, #1
    9378:	e5c01001 	strb	r1, [r0, #1]
    937c:	e8bd48f0 	pop	{r4, r5, r6, r7, fp, lr}
    9380:	e5c01000 	strb	r1, [r0]
    9384:	e12fff1e 	bx	lr

00009388 <_RNvMsv_NtCs5HYdw2IoCB0_4core3numj16from_ascii_radix>:
    9388:	e5d13000 	ldrb	r3, [r1]
    938c:	e3520001 	cmp	r2, #1
    9390:	1a000006 	bne	93b0 <_RNvMsv_NtCs5HYdw2IoCB0_4core3numj16from_ascii_radix+0x28>
    9394:	e353002d 	cmp	r3, #45	@ 0x2d
    9398:	1353002b 	cmpne	r3, #43	@ 0x2b
    939c:	1a000003 	bne	93b0 <_RNvMsv_NtCs5HYdw2IoCB0_4core3numj16from_ascii_radix+0x28>
    93a0:	e3a01001 	mov	r1, #1
    93a4:	e5c01001 	strb	r1, [r0, #1]
    93a8:	e5c01000 	strb	r1, [r0]
    93ac:	e12fff1e 	bx	lr
    93b0:	e92d4010 	push	{r4, lr}
    93b4:	e353002b 	cmp	r3, #43	@ 0x2b
    93b8:	02811001 	addeq	r1, r1, #1
    93bc:	02422001 	subeq	r2, r2, #1
    93c0:	e3520009 	cmp	r2, #9
    93c4:	2a00003e 	bcs	94c4 <_RNvMsv_NtCs5HYdw2IoCB0_4core3numj16from_ascii_radix+0x13c>
    93c8:	e3520000 	cmp	r2, #0
    93cc:	0a00004b 	beq	9500 <_RNvMsv_NtCs5HYdw2IoCB0_4core3numj16from_ascii_radix+0x178>
    93d0:	e5d13000 	ldrb	r3, [r1]
    93d4:	e2433030 	sub	r3, r3, #48	@ 0x30
    93d8:	e3530009 	cmp	r3, #9
    93dc:	8a000056 	bhi	953c <_RNvMsv_NtCs5HYdw2IoCB0_4core3numj16from_ascii_radix+0x1b4>
    93e0:	e3520001 	cmp	r2, #1
    93e4:	0a000046 	beq	9504 <_RNvMsv_NtCs5HYdw2IoCB0_4core3numj16from_ascii_radix+0x17c>
    93e8:	e5d14001 	ldrb	r4, [r1, #1]
    93ec:	e244c030 	sub	ip, r4, #48	@ 0x30
    93f0:	e35c0009 	cmp	ip, #9
    93f4:	8a000050 	bhi	953c <_RNvMsv_NtCs5HYdw2IoCB0_4core3numj16from_ascii_radix+0x1b4>
    93f8:	e0833103 	add	r3, r3, r3, lsl #2
    93fc:	e3520002 	cmp	r2, #2
    9400:	e08c3083 	add	r3, ip, r3, lsl #1
    9404:	0a00003e 	beq	9504 <_RNvMsv_NtCs5HYdw2IoCB0_4core3numj16from_ascii_radix+0x17c>
    9408:	e5d14002 	ldrb	r4, [r1, #2]
    940c:	e244c030 	sub	ip, r4, #48	@ 0x30
    9410:	e35c0009 	cmp	ip, #9
    9414:	8a000048 	bhi	953c <_RNvMsv_NtCs5HYdw2IoCB0_4core3numj16from_ascii_radix+0x1b4>
    9418:	e0833103 	add	r3, r3, r3, lsl #2
    941c:	e3520003 	cmp	r2, #3
    9420:	e08c3083 	add	r3, ip, r3, lsl #1
    9424:	0a000036 	beq	9504 <_RNvMsv_NtCs5HYdw2IoCB0_4core3numj16from_ascii_radix+0x17c>
    9428:	e5d14003 	ldrb	r4, [r1, #3]
    942c:	e244c030 	sub	ip, r4, #48	@ 0x30
    9430:	e35c0009 	cmp	ip, #9
    9434:	8a000040 	bhi	953c <_RNvMsv_NtCs5HYdw2IoCB0_4core3numj16from_ascii_radix+0x1b4>
    9438:	e0833103 	add	r3, r3, r3, lsl #2
    943c:	e3520004 	cmp	r2, #4
    9440:	e08c3083 	add	r3, ip, r3, lsl #1
    9444:	0a00002e 	beq	9504 <_RNvMsv_NtCs5HYdw2IoCB0_4core3numj16from_ascii_radix+0x17c>
    9448:	e5d14004 	ldrb	r4, [r1, #4]
    944c:	e244c030 	sub	ip, r4, #48	@ 0x30
    9450:	e35c0009 	cmp	ip, #9
    9454:	8a000038 	bhi	953c <_RNvMsv_NtCs5HYdw2IoCB0_4core3numj16from_ascii_radix+0x1b4>
    9458:	e0833103 	add	r3, r3, r3, lsl #2
    945c:	e3520005 	cmp	r2, #5
    9460:	e08c3083 	add	r3, ip, r3, lsl #1
    9464:	0a000026 	beq	9504 <_RNvMsv_NtCs5HYdw2IoCB0_4core3numj16from_ascii_radix+0x17c>
    9468:	e5d14005 	ldrb	r4, [r1, #5]
    946c:	e244c030 	sub	ip, r4, #48	@ 0x30
    9470:	e35c0009 	cmp	ip, #9
    9474:	8a000030 	bhi	953c <_RNvMsv_NtCs5HYdw2IoCB0_4core3numj16from_ascii_radix+0x1b4>
    9478:	e0833103 	add	r3, r3, r3, lsl #2
    947c:	e3520006 	cmp	r2, #6
    9480:	e08c3083 	add	r3, ip, r3, lsl #1
    9484:	0a00001e 	beq	9504 <_RNvMsv_NtCs5HYdw2IoCB0_4core3numj16from_ascii_radix+0x17c>
    9488:	e5d14006 	ldrb	r4, [r1, #6]
    948c:	e244c030 	sub	ip, r4, #48	@ 0x30
    9490:	e35c0009 	cmp	ip, #9
    9494:	8a000028 	bhi	953c <_RNvMsv_NtCs5HYdw2IoCB0_4core3numj16from_ascii_radix+0x1b4>
    9498:	e0833103 	add	r3, r3, r3, lsl #2
    949c:	e3520007 	cmp	r2, #7
    94a0:	e08c3083 	add	r3, ip, r3, lsl #1
    94a4:	0a000016 	beq	9504 <_RNvMsv_NtCs5HYdw2IoCB0_4core3numj16from_ascii_radix+0x17c>
    94a8:	e5d11007 	ldrb	r1, [r1, #7]
    94ac:	e2411030 	sub	r1, r1, #48	@ 0x30
    94b0:	e3510009 	cmp	r1, #9
    94b4:	8a000020 	bhi	953c <_RNvMsv_NtCs5HYdw2IoCB0_4core3numj16from_ascii_radix+0x1b4>
    94b8:	e0832103 	add	r2, r3, r3, lsl #2
    94bc:	e0813082 	add	r3, r1, r2, lsl #1
    94c0:	ea00000f 	b	9504 <_RNvMsv_NtCs5HYdw2IoCB0_4core3numj16from_ascii_radix+0x17c>
    94c4:	e3a03000 	mov	r3, #0
    94c8:	e3a0c00a 	mov	ip, #10
    94cc:	e3520000 	cmp	r2, #0
    94d0:	0a00000b 	beq	9504 <_RNvMsv_NtCs5HYdw2IoCB0_4core3numj16from_ascii_radix+0x17c>
    94d4:	e084ec93 	umull	lr, r4, r3, ip
    94d8:	e4d13001 	ldrb	r3, [r1], #1
    94dc:	e3540000 	cmp	r4, #0
    94e0:	1a00000c 	bne	9518 <_RNvMsv_NtCs5HYdw2IoCB0_4core3numj16from_ascii_radix+0x190>
    94e4:	e2433030 	sub	r3, r3, #48	@ 0x30
    94e8:	e3530009 	cmp	r3, #9
    94ec:	8a000012 	bhi	953c <_RNvMsv_NtCs5HYdw2IoCB0_4core3numj16from_ascii_radix+0x1b4>
    94f0:	e093300e 	adds	r3, r3, lr
    94f4:	e2422001 	sub	r2, r2, #1
    94f8:	3afffff3 	bcc	94cc <_RNvMsv_NtCs5HYdw2IoCB0_4core3numj16from_ascii_radix+0x144>
    94fc:	ea000008 	b	9524 <_RNvMsv_NtCs5HYdw2IoCB0_4core3numj16from_ascii_radix+0x19c>
    9500:	e3a03000 	mov	r3, #0
    9504:	e5803004 	str	r3, [r0, #4]
    9508:	e3a01000 	mov	r1, #0
    950c:	e8bd4010 	pop	{r4, lr}
    9510:	e5c01000 	strb	r1, [r0]
    9514:	e12fff1e 	bx	lr
    9518:	e2431030 	sub	r1, r3, #48	@ 0x30
    951c:	e351000a 	cmp	r1, #10
    9520:	2a000005 	bcs	953c <_RNvMsv_NtCs5HYdw2IoCB0_4core3numj16from_ascii_radix+0x1b4>
    9524:	e3a01002 	mov	r1, #2
    9528:	e5c01001 	strb	r1, [r0, #1]
    952c:	e3a01001 	mov	r1, #1
    9530:	e8bd4010 	pop	{r4, lr}
    9534:	e5c01000 	strb	r1, [r0]
    9538:	e12fff1e 	bx	lr
    953c:	e3a01001 	mov	r1, #1
    9540:	e5c01001 	strb	r1, [r0, #1]
    9544:	e8bd4010 	pop	{r4, lr}
    9548:	e5c01000 	strb	r1, [r0]
    954c:	e12fff1e 	bx	lr

00009550 <_RNvNtNtCscA5RF7Ru5It_7pi_side8language5parse11parse_value.llvm.15442064674751795473>:
    9550:	e92d4ff0 	push	{r4, r5, r6, r7, r8, r9, sl, fp, lr}
    9554:	e24ddf49 	sub	sp, sp, #292	@ 0x124
    9558:	e1a0a000 	mov	sl, r0
    955c:	e28d0048 	add	r0, sp, #72	@ 0x48
    9560:	eb000b10 	bl	c1a8 <_RNvNtNtCscA5RF7Ru5It_7pi_side8language5parse2ws>
    9564:	e59d2048 	ldr	r2, [sp, #72]	@ 0x48
    9568:	e59d004c 	ldr	r0, [sp, #76]	@ 0x4c
    956c:	e59d3050 	ldr	r3, [sp, #80]	@ 0x50
    9570:	e3720001 	cmn	r2, #1
    9574:	0a000008 	beq	959c <_RNvNtNtCscA5RF7Ru5It_7pi_side8language5parse11parse_value.llvm.15442064674751795473+0x4c>
    9578:	e59d1054 	ldr	r1, [sp, #84]	@ 0x54
    957c:	e58a200c 	str	r2, [sl, #12]
    9580:	e58a0010 	str	r0, [sl, #16]
    9584:	e58a3014 	str	r3, [sl, #20]
    9588:	e58a1018 	str	r1, [sl, #24]
    958c:	e3a000ff 	mov	r0, #255	@ 0xff
    9590:	e5ca0008 	strb	r0, [sl, #8]
    9594:	e28ddf49 	add	sp, sp, #292	@ 0x124
    9598:	e8bd8ff0 	pop	{r4, r5, r6, r7, r8, r9, sl, fp, pc}
    959c:	e3530000 	cmp	r3, #0
    95a0:	e58d3024 	str	r3, [sp, #36]	@ 0x24
    95a4:	0a000138 	beq	9a8c <_RNvNtNtCscA5RF7Ru5It_7pi_side8language5parse11parse_value.llvm.15442064674751795473+0x53c>
    95a8:	e1d010d0 	ldrsb	r1, [r0]
    95ac:	e3710001 	cmn	r1, #1
    95b0:	e6ef7071 	uxtb	r7, r1
    95b4:	da00010d 	ble	99f0 <_RNvNtNtCscA5RF7Ru5It_7pi_side8language5parse11parse_value.llvm.15442064674751795473+0x4a0>
    95b8:	e3570022 	cmp	r7, #34	@ 0x22
    95bc:	1a000132 	bne	9a8c <_RNvNtNtCscA5RF7Ru5It_7pi_side8language5parse11parse_value.llvm.15442064674751795473+0x53c>
    95c0:	e2807001 	add	r7, r0, #1
    95c4:	e3530001 	cmp	r3, #1
    95c8:	0a00011f 	beq	9a4c <_RNvNtNtCscA5RF7Ru5It_7pi_side8language5parse11parse_value.llvm.15442064674751795473+0x4fc>
    95cc:	e1d710d0 	ldrsb	r1, [r7]
    95d0:	e3710041 	cmn	r1, #65	@ 0x41
    95d4:	da000aa2 	ble	c064 <_RNvNtNtCscA5RF7Ru5It_7pi_side8language5parse11parse_value.llvm.15442064674751795473+0x2b14>
    95d8:	e2435001 	sub	r5, r3, #1
    95dc:	e3a06000 	mov	r6, #0
    95e0:	e3a0e001 	mov	lr, #1
    95e4:	e3a0c022 	mov	ip, #34	@ 0x22
    95e8:	e3e0907f 	mvn	r9, #127	@ 0x7f
    95ec:	e3a00001 	mov	r0, #1
    95f0:	e3a01000 	mov	r1, #0
    95f4:	e58d6050 	str	r6, [sp, #80]	@ 0x50
    95f8:	e58de04c 	str	lr, [sp, #76]	@ 0x4c
    95fc:	e58d6048 	str	r6, [sp, #72]	@ 0x48
    9600:	ea000009 	b	962c <_RNvNtNtCscA5RF7Ru5It_7pi_side8language5parse11parse_value.llvm.15442064674751795473+0xdc>
    9604:	e1a0332b 	lsr	r3, fp, #6
    9608:	e5c12001 	strb	r2, [r1, #1]
    960c:	e38320c0 	orr	r2, r3, #192	@ 0xc0
    9610:	e5c12000 	strb	r2, [r1]
    9614:	e3a01002 	mov	r1, #2
    9618:	e0816006 	add	r6, r1, r6
    961c:	e3a01000 	mov	r1, #0
    9620:	e58d6050 	str	r6, [sp, #80]	@ 0x50
    9624:	e3550000 	cmp	r5, #0
    9628:	0a000100 	beq	9a30 <_RNvNtNtCscA5RF7Ru5It_7pi_side8language5parse11parse_value.llvm.15442064674751795473+0x4e0>
    962c:	e1d720d0 	ldrsb	r2, [r7]
    9630:	e3720001 	cmn	r2, #1
    9634:	e6efb072 	uxtb	fp, r2
    9638:	da000004 	ble	9650 <_RNvNtNtCscA5RF7Ru5It_7pi_side8language5parse11parse_value.llvm.15442064674751795473+0x100>
    963c:	e3a08001 	mov	r8, #1
    9640:	e3a02001 	mov	r2, #1
    9644:	e1550002 	cmp	r5, r2
    9648:	9a000027 	bls	96ec <_RNvNtNtCscA5RF7Ru5It_7pi_side8language5parse11parse_value.llvm.15442064674751795473+0x19c>
    964c:	ea00001a 	b	96bc <_RNvNtNtCscA5RF7Ru5It_7pi_side8language5parse11parse_value.llvm.15442064674751795473+0x16c>
    9650:	e5d73001 	ldrb	r3, [r7, #1]
    9654:	e20b201f 	and	r2, fp, #31
    9658:	e35b00e0 	cmp	fp, #224	@ 0xe0
    965c:	e203303f 	and	r3, r3, #63	@ 0x3f
    9660:	3a00001a 	bcc	96d0 <_RNvNtNtCscA5RF7Ru5It_7pi_side8language5parse11parse_value.llvm.15442064674751795473+0x180>
    9664:	e5d74002 	ldrb	r4, [r7, #2]
    9668:	e35b00f0 	cmp	fp, #240	@ 0xf0
    966c:	e204403f 	and	r4, r4, #63	@ 0x3f
    9670:	e1843303 	orr	r3, r4, r3, lsl #6
    9674:	3a000058 	bcc	97dc <_RNvNtNtCscA5RF7Ru5It_7pi_side8language5parse11parse_value.llvm.15442064674751795473+0x28c>
    9678:	e5d74003 	ldrb	r4, [r7, #3]
    967c:	e2022007 	and	r2, r2, #7
    9680:	e204403f 	and	r4, r4, #63	@ 0x3f
    9684:	e1843303 	orr	r3, r4, r3, lsl #6
    9688:	e183b902 	orr	fp, r3, r2, lsl #18
    968c:	e3a02001 	mov	r2, #1
    9690:	e35b0080 	cmp	fp, #128	@ 0x80
    9694:	3a000011 	bcc	96e0 <_RNvNtNtCscA5RF7Ru5It_7pi_side8language5parse11parse_value.llvm.15442064674751795473+0x190>
    9698:	e3a02002 	mov	r2, #2
    969c:	e3a08000 	mov	r8, #0
    96a0:	e35b0b02 	cmp	fp, #2048	@ 0x800
    96a4:	3a000002 	bcc	96b4 <_RNvNtNtCscA5RF7Ru5It_7pi_side8language5parse11parse_value.llvm.15442064674751795473+0x164>
    96a8:	e35b0801 	cmp	fp, #65536	@ 0x10000
    96ac:	e3a02004 	mov	r2, #4
    96b0:	33a02003 	movcc	r2, #3
    96b4:	e1550002 	cmp	r5, r2
    96b8:	9a00000b 	bls	96ec <_RNvNtNtCscA5RF7Ru5It_7pi_side8language5parse11parse_value.llvm.15442064674751795473+0x19c>
    96bc:	e0873002 	add	r3, r7, r2
    96c0:	e1d330d0 	ldrsb	r3, [r3]
    96c4:	e3730040 	cmn	r3, #64	@ 0x40
    96c8:	aa000008 	bge	96f0 <_RNvNtNtCscA5RF7Ru5It_7pi_side8language5parse11parse_value.llvm.15442064674751795473+0x1a0>
    96cc:	ea000a58 	b	c034 <_RNvNtNtCscA5RF7Ru5It_7pi_side8language5parse11parse_value.llvm.15442064674751795473+0x2ae4>
    96d0:	e183b302 	orr	fp, r3, r2, lsl #6
    96d4:	e3a02001 	mov	r2, #1
    96d8:	e35b0080 	cmp	fp, #128	@ 0x80
    96dc:	2affffed 	bcs	9698 <_RNvNtNtCscA5RF7Ru5It_7pi_side8language5parse11parse_value.llvm.15442064674751795473+0x148>
    96e0:	e3a08001 	mov	r8, #1
    96e4:	e1550002 	cmp	r5, r2
    96e8:	8afffff3 	bhi	96bc <_RNvNtNtCscA5RF7Ru5It_7pi_side8language5parse11parse_value.llvm.15442064674751795473+0x16c>
    96ec:	1a000a50 	bne	c034 <_RNvNtNtCscA5RF7Ru5It_7pi_side8language5parse11parse_value.llvm.15442064674751795473+0x2ae4>
    96f0:	e0877002 	add	r7, r7, r2
    96f4:	e0455002 	sub	r5, r5, r2
    96f8:	e3110001 	tst	r1, #1
    96fc:	0a00000c 	beq	9734 <_RNvNtNtCscA5RF7Ru5It_7pi_side8language5parse11parse_value.llvm.15442064674751795473+0x1e4>
    9700:	e59d0048 	ldr	r0, [sp, #72]	@ 0x48
    9704:	e1500006 	cmp	r0, r6
    9708:	0a000043 	beq	981c <_RNvNtNtCscA5RF7Ru5It_7pi_side8language5parse11parse_value.llvm.15442064674751795473+0x2cc>
    970c:	e59d004c 	ldr	r0, [sp, #76]	@ 0x4c
    9710:	e2864001 	add	r4, r6, #1
    9714:	e35b006d 	cmp	fp, #109	@ 0x6d
    9718:	ca00004b 	bgt	984c <_RNvNtNtCscA5RF7Ru5It_7pi_side8language5parse11parse_value.llvm.15442064674751795473+0x2fc>
    971c:	e35b0022 	cmp	fp, #34	@ 0x22
    9720:	0a00002b 	beq	97d4 <_RNvNtNtCscA5RF7Ru5It_7pi_side8language5parse11parse_value.llvm.15442064674751795473+0x284>
    9724:	e35b005c 	cmp	fp, #92	@ 0x5c
    9728:	1a00004d 	bne	9864 <_RNvNtNtCscA5RF7Ru5It_7pi_side8language5parse11parse_value.llvm.15442064674751795473+0x314>
    972c:	e3a0105c 	mov	r1, #92	@ 0x5c
    9730:	ea000057 	b	9894 <_RNvNtNtCscA5RF7Ru5It_7pi_side8language5parse11parse_value.llvm.15442064674751795473+0x344>
    9734:	e3a01001 	mov	r1, #1
    9738:	e35b005c 	cmp	fp, #92	@ 0x5c
    973c:	0affffb8 	beq	9624 <_RNvNtNtCscA5RF7Ru5It_7pi_side8language5parse11parse_value.llvm.15442064674751795473+0xd4>
    9740:	e35b0022 	cmp	fp, #34	@ 0x22
    9744:	0a0001b2 	beq	9e14 <_RNvNtNtCscA5RF7Ru5It_7pi_side8language5parse11parse_value.llvm.15442064674751795473+0x8c4>
    9748:	e3580000 	cmp	r8, #0
    974c:	0a000006 	beq	976c <_RNvNtNtCscA5RF7Ru5It_7pi_side8language5parse11parse_value.llvm.15442064674751795473+0x21c>
    9750:	e59d0048 	ldr	r0, [sp, #72]	@ 0x48
    9754:	e1500006 	cmp	r0, r6
    9758:	0a00007f 	beq	995c <_RNvNtNtCscA5RF7Ru5It_7pi_side8language5parse11parse_value.llvm.15442064674751795473+0x40c>
    975c:	e59d004c 	ldr	r0, [sp, #76]	@ 0x4c
    9760:	e3a01001 	mov	r1, #1
    9764:	e7c0b006 	strb	fp, [r0, r6]
    9768:	eaffffaa 	b	9618 <_RNvNtNtCscA5RF7Ru5It_7pi_side8language5parse11parse_value.llvm.15442064674751795473+0xc8>
    976c:	e59d1048 	ldr	r1, [sp, #72]	@ 0x48
    9770:	e35b0801 	cmp	fp, #65536	@ 0x10000
    9774:	e3a02004 	mov	r2, #4
    9778:	33a02003 	movcc	r2, #3
    977c:	e35b0b02 	cmp	fp, #2048	@ 0x800
    9780:	e0411006 	sub	r1, r1, r6
    9784:	33a02002 	movcc	r2, #2
    9788:	e1520001 	cmp	r2, r1
    978c:	8a00007b 	bhi	9980 <_RNvNtNtCscA5RF7Ru5It_7pi_side8language5parse11parse_value.llvm.15442064674751795473+0x430>
    9790:	e20b203f 	and	r2, fp, #63	@ 0x3f
    9794:	e0801006 	add	r1, r0, r6
    9798:	e1822009 	orr	r2, r2, r9
    979c:	e35b0b02 	cmp	fp, #2048	@ 0x800
    97a0:	3affff97 	bcc	9604 <_RNvNtNtCscA5RF7Ru5It_7pi_side8language5parse11parse_value.llvm.15442064674751795473+0xb4>
    97a4:	e3a0803f 	mov	r8, #63	@ 0x3f
    97a8:	e008332b 	and	r3, r8, fp, lsr #6
    97ac:	e1833009 	orr	r3, r3, r9
    97b0:	e1b0482b 	lsrs	r4, fp, #16
    97b4:	1a00000d 	bne	97f0 <_RNvNtNtCscA5RF7Ru5It_7pi_side8language5parse11parse_value.llvm.15442064674751795473+0x2a0>
    97b8:	e1a0462b 	lsr	r4, fp, #12
    97bc:	e5c12002 	strb	r2, [r1, #2]
    97c0:	e38420e0 	orr	r2, r4, #224	@ 0xe0
    97c4:	e5c13001 	strb	r3, [r1, #1]
    97c8:	e5c12000 	strb	r2, [r1]
    97cc:	e3a01003 	mov	r1, #3
    97d0:	eaffff90 	b	9618 <_RNvNtNtCscA5RF7Ru5It_7pi_side8language5parse11parse_value.llvm.15442064674751795473+0xc8>
    97d4:	e7c0c006 	strb	ip, [r0, r6]
    97d8:	ea00002e 	b	9898 <_RNvNtNtCscA5RF7Ru5It_7pi_side8language5parse11parse_value.llvm.15442064674751795473+0x348>
    97dc:	e183b602 	orr	fp, r3, r2, lsl #12
    97e0:	e3a02001 	mov	r2, #1
    97e4:	e35b0080 	cmp	fp, #128	@ 0x80
    97e8:	3affffbc 	bcc	96e0 <_RNvNtNtCscA5RF7Ru5It_7pi_side8language5parse11parse_value.llvm.15442064674751795473+0x190>
    97ec:	eaffffa9 	b	9698 <_RNvNtNtCscA5RF7Ru5It_7pi_side8language5parse11parse_value.llvm.15442064674751795473+0x148>
    97f0:	e3e0400f 	mvn	r4, #15
    97f4:	e184c92b 	orr	ip, r4, fp, lsr #18
    97f8:	e008462b 	and	r4, r8, fp, lsr #12
    97fc:	e5c1c000 	strb	ip, [r1]
    9800:	e1844009 	orr	r4, r4, r9
    9804:	e5c12003 	strb	r2, [r1, #3]
    9808:	e5c13002 	strb	r3, [r1, #2]
    980c:	e3a0c022 	mov	ip, #34	@ 0x22
    9810:	e5c14001 	strb	r4, [r1, #1]
    9814:	e3a01004 	mov	r1, #4
    9818:	eaffff7e 	b	9618 <_RNvNtNtCscA5RF7Ru5It_7pi_side8language5parse11parse_value.llvm.15442064674751795473+0xc8>
    981c:	e28d0048 	add	r0, sp, #72	@ 0x48
    9820:	e1a01006 	mov	r1, r6
    9824:	e3a02001 	mov	r2, #1
    9828:	e3a03001 	mov	r3, #1
    982c:	e58de000 	str	lr, [sp]
    9830:	eb004446 	bl	1a950 <_RINvNvMs2_NtCs3SSNe1yeMmP_5alloc7raw_vecINtB8_11RawVecInnerpE7reserve21do_reserve_and_handleNtNtBa_5alloc6GlobalECscA5RF7Ru5It_7pi_side>
    9834:	e3a0c022 	mov	ip, #34	@ 0x22
    9838:	e3a0e001 	mov	lr, #1
    983c:	e59d004c 	ldr	r0, [sp, #76]	@ 0x4c
    9840:	e2864001 	add	r4, r6, #1
    9844:	e35b006d 	cmp	fp, #109	@ 0x6d
    9848:	daffffb3 	ble	971c <_RNvNtNtCscA5RF7Ru5It_7pi_side8language5parse11parse_value.llvm.15442064674751795473+0x1cc>
    984c:	e35b006e 	cmp	fp, #110	@ 0x6e
    9850:	0a00000e 	beq	9890 <_RNvNtNtCscA5RF7Ru5It_7pi_side8language5parse11parse_value.llvm.15442064674751795473+0x340>
    9854:	e35b0074 	cmp	fp, #116	@ 0x74
    9858:	1a000001 	bne	9864 <_RNvNtNtCscA5RF7Ru5It_7pi_side8language5parse11parse_value.llvm.15442064674751795473+0x314>
    985c:	e3a01009 	mov	r1, #9
    9860:	ea00000b 	b	9894 <_RNvNtNtCscA5RF7Ru5It_7pi_side8language5parse11parse_value.llvm.15442064674751795473+0x344>
    9864:	e3a0105c 	mov	r1, #92	@ 0x5c
    9868:	e3580000 	cmp	r8, #0
    986c:	e7c01006 	strb	r1, [r0, r6]
    9870:	e58d4050 	str	r4, [sp, #80]	@ 0x50
    9874:	0a000009 	beq	98a0 <_RNvNtNtCscA5RF7Ru5It_7pi_side8language5parse11parse_value.llvm.15442064674751795473+0x350>
    9878:	e59d1048 	ldr	r1, [sp, #72]	@ 0x48
    987c:	e1510004 	cmp	r1, r4
    9880:	0a000047 	beq	99a4 <_RNvNtNtCscA5RF7Ru5It_7pi_side8language5parse11parse_value.llvm.15442064674751795473+0x454>
    9884:	e7c0b004 	strb	fp, [r0, r4]
    9888:	e08e6004 	add	r6, lr, r4
    988c:	eaffff62 	b	961c <_RNvNtNtCscA5RF7Ru5It_7pi_side8language5parse11parse_value.llvm.15442064674751795473+0xcc>
    9890:	e3a0100a 	mov	r1, #10
    9894:	e7c01006 	strb	r1, [r0, r6]
    9898:	e1a06004 	mov	r6, r4
    989c:	eaffff5e 	b	961c <_RNvNtNtCscA5RF7Ru5It_7pi_side8language5parse11parse_value.llvm.15442064674751795473+0xcc>
    98a0:	e59d1048 	ldr	r1, [sp, #72]	@ 0x48
    98a4:	e35b0801 	cmp	fp, #65536	@ 0x10000
    98a8:	e3a02004 	mov	r2, #4
    98ac:	e3a0603f 	mov	r6, #63	@ 0x3f
    98b0:	33a02003 	movcc	r2, #3
    98b4:	e35b0b02 	cmp	fp, #2048	@ 0x800
    98b8:	e0411004 	sub	r1, r1, r4
    98bc:	33a02002 	movcc	r2, #2
    98c0:	e1520001 	cmp	r2, r1
    98c4:	8a000040 	bhi	99cc <_RNvNtNtCscA5RF7Ru5It_7pi_side8language5parse11parse_value.llvm.15442064674751795473+0x47c>
    98c8:	e20b203f 	and	r2, fp, #63	@ 0x3f
    98cc:	e0801004 	add	r1, r0, r4
    98d0:	e1822009 	orr	r2, r2, r9
    98d4:	e35b0b02 	cmp	fp, #2048	@ 0x800
    98d8:	2a000006 	bcs	98f8 <_RNvNtNtCscA5RF7Ru5It_7pi_side8language5parse11parse_value.llvm.15442064674751795473+0x3a8>
    98dc:	e1a0332b 	lsr	r3, fp, #6
    98e0:	e5c12001 	strb	r2, [r1, #1]
    98e4:	e38320c0 	orr	r2, r3, #192	@ 0xc0
    98e8:	e5c12000 	strb	r2, [r1]
    98ec:	e3a01002 	mov	r1, #2
    98f0:	e0816004 	add	r6, r1, r4
    98f4:	eaffff48 	b	961c <_RNvNtNtCscA5RF7Ru5It_7pi_side8language5parse11parse_value.llvm.15442064674751795473+0xcc>
    98f8:	e006332b 	and	r3, r6, fp, lsr #6
    98fc:	e3a0803f 	mov	r8, #63	@ 0x3f
    9900:	e1833009 	orr	r3, r3, r9
    9904:	e1b0682b 	lsrs	r6, fp, #16
    9908:	1a000007 	bne	992c <_RNvNtNtCscA5RF7Ru5It_7pi_side8language5parse11parse_value.llvm.15442064674751795473+0x3dc>
    990c:	e1a0662b 	lsr	r6, fp, #12
    9910:	e5c12002 	strb	r2, [r1, #2]
    9914:	e38620e0 	orr	r2, r6, #224	@ 0xe0
    9918:	e5c13001 	strb	r3, [r1, #1]
    991c:	e5c12000 	strb	r2, [r1]
    9920:	e3a01003 	mov	r1, #3
    9924:	e0816004 	add	r6, r1, r4
    9928:	eaffff3b 	b	961c <_RNvNtNtCscA5RF7Ru5It_7pi_side8language5parse11parse_value.llvm.15442064674751795473+0xcc>
    992c:	e3e0600f 	mvn	r6, #15
    9930:	e186c92b 	orr	ip, r6, fp, lsr #18
    9934:	e008662b 	and	r6, r8, fp, lsr #12
    9938:	e5c1c000 	strb	ip, [r1]
    993c:	e1866009 	orr	r6, r6, r9
    9940:	e5c12003 	strb	r2, [r1, #3]
    9944:	e5c13002 	strb	r3, [r1, #2]
    9948:	e3a0c022 	mov	ip, #34	@ 0x22
    994c:	e5c16001 	strb	r6, [r1, #1]
    9950:	e3a01004 	mov	r1, #4
    9954:	e0816004 	add	r6, r1, r4
    9958:	eaffff2f 	b	961c <_RNvNtNtCscA5RF7Ru5It_7pi_side8language5parse11parse_value.llvm.15442064674751795473+0xcc>
    995c:	e28d0048 	add	r0, sp, #72	@ 0x48
    9960:	e1a01006 	mov	r1, r6
    9964:	e3a02001 	mov	r2, #1
    9968:	e3a03001 	mov	r3, #1
    996c:	e58de000 	str	lr, [sp]
    9970:	eb0043f6 	bl	1a950 <_RINvNvMs2_NtCs3SSNe1yeMmP_5alloc7raw_vecINtB8_11RawVecInnerpE7reserve21do_reserve_and_handleNtNtBa_5alloc6GlobalECscA5RF7Ru5It_7pi_side>
    9974:	e3a0c022 	mov	ip, #34	@ 0x22
    9978:	e3a0e001 	mov	lr, #1
    997c:	eaffff76 	b	975c <_RNvNtNtCscA5RF7Ru5It_7pi_side8language5parse11parse_value.llvm.15442064674751795473+0x20c>
    9980:	e28d0048 	add	r0, sp, #72	@ 0x48
    9984:	e1a01006 	mov	r1, r6
    9988:	e3a03001 	mov	r3, #1
    998c:	e58de000 	str	lr, [sp]
    9990:	eb0043ee 	bl	1a950 <_RINvNvMs2_NtCs3SSNe1yeMmP_5alloc7raw_vecINtB8_11RawVecInnerpE7reserve21do_reserve_and_handleNtNtBa_5alloc6GlobalECscA5RF7Ru5It_7pi_side>
    9994:	e59d004c 	ldr	r0, [sp, #76]	@ 0x4c
    9998:	e3a0c022 	mov	ip, #34	@ 0x22
    999c:	e3a0e001 	mov	lr, #1
    99a0:	eaffff7a 	b	9790 <_RNvNtNtCscA5RF7Ru5It_7pi_side8language5parse11parse_value.llvm.15442064674751795473+0x240>
    99a4:	e28d0048 	add	r0, sp, #72	@ 0x48
    99a8:	e1a01004 	mov	r1, r4
    99ac:	e3a02001 	mov	r2, #1
    99b0:	e3a03001 	mov	r3, #1
    99b4:	e58de000 	str	lr, [sp]
    99b8:	eb0043e4 	bl	1a950 <_RINvNvMs2_NtCs3SSNe1yeMmP_5alloc7raw_vecINtB8_11RawVecInnerpE7reserve21do_reserve_and_handleNtNtBa_5alloc6GlobalECscA5RF7Ru5It_7pi_side>
    99bc:	e59d004c 	ldr	r0, [sp, #76]	@ 0x4c
    99c0:	e3a0c022 	mov	ip, #34	@ 0x22
    99c4:	e3a0e001 	mov	lr, #1
    99c8:	eaffffad 	b	9884 <_RNvNtNtCscA5RF7Ru5It_7pi_side8language5parse11parse_value.llvm.15442064674751795473+0x334>
    99cc:	e28d0048 	add	r0, sp, #72	@ 0x48
    99d0:	e1a01004 	mov	r1, r4
    99d4:	e3a03001 	mov	r3, #1
    99d8:	e58de000 	str	lr, [sp]
    99dc:	eb0043db 	bl	1a950 <_RINvNvMs2_NtCs3SSNe1yeMmP_5alloc7raw_vecINtB8_11RawVecInnerpE7reserve21do_reserve_and_handleNtNtBa_5alloc6GlobalECscA5RF7Ru5It_7pi_side>
    99e0:	e59d004c 	ldr	r0, [sp, #76]	@ 0x4c
    99e4:	e3a0c022 	mov	ip, #34	@ 0x22
    99e8:	e3a0e001 	mov	lr, #1
    99ec:	eaffffb5 	b	98c8 <_RNvNtNtCscA5RF7Ru5It_7pi_side8language5parse11parse_value.llvm.15442064674751795473+0x378>
    99f0:	e5d02001 	ldrb	r2, [r0, #1]
    99f4:	e207101f 	and	r1, r7, #31
    99f8:	e35700e0 	cmp	r7, #224	@ 0xe0
    99fc:	e202203f 	and	r2, r2, #63	@ 0x3f
    9a00:	3a000019 	bcc	9a6c <_RNvNtNtCscA5RF7Ru5It_7pi_side8language5parse11parse_value.llvm.15442064674751795473+0x51c>
    9a04:	e5d03002 	ldrb	r3, [r0, #2]
    9a08:	e35700f0 	cmp	r7, #240	@ 0xf0
    9a0c:	e203303f 	and	r3, r3, #63	@ 0x3f
    9a10:	e1832302 	orr	r2, r3, r2, lsl #6
    9a14:	3a000018 	bcc	9a7c <_RNvNtNtCscA5RF7Ru5It_7pi_side8language5parse11parse_value.llvm.15442064674751795473+0x52c>
    9a18:	e5d03003 	ldrb	r3, [r0, #3]
    9a1c:	e2011007 	and	r1, r1, #7
    9a20:	e203303f 	and	r3, r3, #63	@ 0x3f
    9a24:	e1832302 	orr	r2, r3, r2, lsl #6
    9a28:	e1827901 	orr	r7, r2, r1, lsl #18
    9a2c:	ea000013 	b	9a80 <_RNvNtNtCscA5RF7Ru5It_7pi_side8language5parse11parse_value.llvm.15442064674751795473+0x530>
    9a30:	e59d3048 	ldr	r3, [sp, #72]	@ 0x48
    9a34:	e3530000 	cmp	r3, #0
    9a38:	0a000003 	beq	9a4c <_RNvNtNtCscA5RF7Ru5It_7pi_side8language5parse11parse_value.llvm.15442064674751795473+0x4fc>
    9a3c:	e59d104c 	ldr	r1, [sp, #76]	@ 0x4c
    9a40:	e3a02001 	mov	r2, #1
    9a44:	e59f0fe0 	ldr	r0, [pc, #4064]	@ aa2c <_RNvNtNtCscA5RF7Ru5It_7pi_side8language5parse11parse_value.llvm.15442064674751795473+0x14dc>
    9a48:	eb004baa 	bl	1c8f8 <_RNvXs_NtCs902aIDM3RvW_14embedded_alloc4llffNtB4_4HeapNtNtNtCs5HYdw2IoCB0_4core5alloc6global11GlobalAlloc7dealloc>
    9a4c:	e3a0001d 	mov	r0, #29
    9a50:	e3a01000 	mov	r1, #0
    9a54:	e3a02002 	mov	r2, #2
    9a58:	e58a7010 	str	r7, [sl, #16]
    9a5c:	e58a200c 	str	r2, [sl, #12]
    9a60:	e58a1014 	str	r1, [sl, #20]
    9a64:	e58a0018 	str	r0, [sl, #24]
    9a68:	eafffec7 	b	958c <_RNvNtNtCscA5RF7Ru5It_7pi_side8language5parse11parse_value.llvm.15442064674751795473+0x3c>
    9a6c:	e1827301 	orr	r7, r2, r1, lsl #6
    9a70:	e3570022 	cmp	r7, #34	@ 0x22
    9a74:	1a000004 	bne	9a8c <_RNvNtNtCscA5RF7Ru5It_7pi_side8language5parse11parse_value.llvm.15442064674751795473+0x53c>
    9a78:	eafffed0 	b	95c0 <_RNvNtNtCscA5RF7Ru5It_7pi_side8language5parse11parse_value.llvm.15442064674751795473+0x70>
    9a7c:	e1827601 	orr	r7, r2, r1, lsl #12
    9a80:	e59d3024 	ldr	r3, [sp, #36]	@ 0x24
    9a84:	e3570022 	cmp	r7, #34	@ 0x22
    9a88:	0afffecc 	beq	95c0 <_RNvNtNtCscA5RF7Ru5It_7pi_side8language5parse11parse_value.llvm.15442064674751795473+0x70>
    9a8c:	e1a0e00a 	mov	lr, sl
    9a90:	e3a0801d 	mov	r8, #29
    9a94:	e5ae3014 	str	r3, [lr, #20]!
    9a98:	e3a0c001 	mov	ip, #1
    9a9c:	e3a0b0ff 	mov	fp, #255	@ 0xff
    9aa0:	e3a01000 	mov	r1, #0
    9aa4:	e3a0201d 	mov	r2, #29
    9aa8:	e3a06000 	mov	r6, #0
    9aac:	e1a09000 	mov	r9, r0
    9ab0:	e3530000 	cmp	r3, #0
    9ab4:	e58e8004 	str	r8, [lr, #4]
    9ab8:	e50ec008 	str	ip, [lr, #-8]
    9abc:	e50e0004 	str	r0, [lr, #-4]
    9ac0:	e54eb00c 	strb	fp, [lr, #-12]
    9ac4:	e58de01c 	str	lr, [sp, #28]
    9ac8:	e58d0020 	str	r0, [sp, #32]
    9acc:	0a00022d 	beq	a388 <_RNvNtNtCscA5RF7Ru5It_7pi_side8language5parse11parse_value.llvm.15442064674751795473+0xe38>
    9ad0:	e1d020d0 	ldrsb	r2, [r0]
    9ad4:	e1a04000 	mov	r4, r0
    9ad8:	e3720001 	cmn	r2, #1
    9adc:	e6ef0072 	uxtb	r0, r2
    9ae0:	ca000013 	bgt	9b34 <_RNvNtNtCscA5RF7Ru5It_7pi_side8language5parse11parse_value.llvm.15442064674751795473+0x5e4>
    9ae4:	e5d43001 	ldrb	r3, [r4, #1]
    9ae8:	e200201f 	and	r2, r0, #31
    9aec:	e35000e0 	cmp	r0, #224	@ 0xe0
    9af0:	e203303f 	and	r3, r3, #63	@ 0x3f
    9af4:	3a00000a 	bcc	9b24 <_RNvNtNtCscA5RF7Ru5It_7pi_side8language5parse11parse_value.llvm.15442064674751795473+0x5d4>
    9af8:	e5d47002 	ldrb	r7, [r4, #2]
    9afc:	e35000f0 	cmp	r0, #240	@ 0xf0
    9b00:	e207703f 	and	r7, r7, #63	@ 0x3f
    9b04:	e1873303 	orr	r3, r7, r3, lsl #6
    9b08:	3a000007 	bcc	9b2c <_RNvNtNtCscA5RF7Ru5It_7pi_side8language5parse11parse_value.llvm.15442064674751795473+0x5dc>
    9b0c:	e5d40003 	ldrb	r0, [r4, #3]
    9b10:	e2022007 	and	r2, r2, #7
    9b14:	e200003f 	and	r0, r0, #63	@ 0x3f
    9b18:	e1800303 	orr	r0, r0, r3, lsl #6
    9b1c:	e1800902 	orr	r0, r0, r2, lsl #18
    9b20:	ea000002 	b	9b30 <_RNvNtNtCscA5RF7Ru5It_7pi_side8language5parse11parse_value.llvm.15442064674751795473+0x5e0>
    9b24:	e1830302 	orr	r0, r3, r2, lsl #6
    9b28:	ea000000 	b	9b30 <_RNvNtNtCscA5RF7Ru5It_7pi_side8language5parse11parse_value.llvm.15442064674751795473+0x5e0>
    9b2c:	e1830602 	orr	r0, r3, r2, lsl #12
    9b30:	e59d3024 	ldr	r3, [sp, #36]	@ 0x24
    9b34:	e3a0201d 	mov	r2, #29
    9b38:	e1a06003 	mov	r6, r3
    9b3c:	e1a09004 	mov	r9, r4
    9b40:	e3500023 	cmp	r0, #35	@ 0x23
    9b44:	1a00020f 	bne	a388 <_RNvNtNtCscA5RF7Ru5It_7pi_side8language5parse11parse_value.llvm.15442064674751795473+0xe38>
    9b48:	e2849001 	add	r9, r4, #1
    9b4c:	e1a00003 	mov	r0, r3
    9b50:	e3a03000 	mov	r3, #0
    9b54:	e3a06000 	mov	r6, #0
    9b58:	e3500001 	cmp	r0, #1
    9b5c:	e58da018 	str	sl, [sp, #24]
    9b60:	0a000007 	beq	9b84 <_RNvNtNtCscA5RF7Ru5It_7pi_side8language5parse11parse_value.llvm.15442064674751795473+0x634>
    9b64:	e1d900d0 	ldrsb	r0, [r9]
    9b68:	e3700041 	cmn	r0, #65	@ 0x41
    9b6c:	da000941 	ble	c078 <_RNvNtNtCscA5RF7Ru5It_7pi_side8language5parse11parse_value.llvm.15442064674751795473+0x2b28>
    9b70:	e59d0024 	ldr	r0, [sp, #36]	@ 0x24
    9b74:	e3a06001 	mov	r6, #1
    9b78:	e2407001 	sub	r7, r0, #1
    9b7c:	e3570002 	cmp	r7, #2
    9b80:	2a00003c 	bcs	9c78 <_RNvNtNtCscA5RF7Ru5It_7pi_side8language5parse11parse_value.llvm.15442064674751795473+0x728>
    9b84:	e59d2020 	ldr	r2, [sp, #32]
    9b88:	e082a000 	add	sl, r2, r0
    9b8c:	e1a02009 	mov	r2, r9
    9b90:	ea000006 	b	9bb0 <_RNvNtNtCscA5RF7Ru5It_7pi_side8language5parse11parse_value.llvm.15442064674751795473+0x660>
    9b94:	e1840302 	orr	r0, r4, r2, lsl #6
    9b98:	e2832002 	add	r2, r3, #2
    9b9c:	e0453003 	sub	r3, r5, r3
    9ba0:	e240003a 	sub	r0, r0, #58	@ 0x3a
    9ba4:	e0833002 	add	r3, r3, r2
    9ba8:	e370000b 	cmn	r0, #11
    9bac:	9a000020 	bls	9c34 <_RNvNtNtCscA5RF7Ru5It_7pi_side8language5parse11parse_value.llvm.15442064674751795473+0x6e4>
    9bb0:	e152000a 	cmp	r2, sl
    9bb4:	0a000019 	beq	9c20 <_RNvNtNtCscA5RF7Ru5It_7pi_side8language5parse11parse_value.llvm.15442064674751795473+0x6d0>
    9bb8:	e1a05003 	mov	r5, r3
    9bbc:	e1a03002 	mov	r3, r2
    9bc0:	e0d240d1 	ldrsb	r4, [r2], #1
    9bc4:	e3740001 	cmn	r4, #1
    9bc8:	e6ef0074 	uxtb	r0, r4
    9bcc:	cafffff2 	bgt	9b9c <_RNvNtNtCscA5RF7Ru5It_7pi_side8language5parse11parse_value.llvm.15442064674751795473+0x64c>
    9bd0:	e5d34001 	ldrb	r4, [r3, #1]
    9bd4:	e200201f 	and	r2, r0, #31
    9bd8:	e35000e0 	cmp	r0, #224	@ 0xe0
    9bdc:	e204403f 	and	r4, r4, #63	@ 0x3f
    9be0:	3affffeb 	bcc	9b94 <_RNvNtNtCscA5RF7Ru5It_7pi_side8language5parse11parse_value.llvm.15442064674751795473+0x644>
    9be4:	e5d37002 	ldrb	r7, [r3, #2]
    9be8:	e35000f0 	cmp	r0, #240	@ 0xf0
    9bec:	e207703f 	and	r7, r7, #63	@ 0x3f
    9bf0:	e1874304 	orr	r4, r7, r4, lsl #6
    9bf4:	3a000006 	bcc	9c14 <_RNvNtNtCscA5RF7Ru5It_7pi_side8language5parse11parse_value.llvm.15442064674751795473+0x6c4>
    9bf8:	e5d30003 	ldrb	r0, [r3, #3]
    9bfc:	e2022007 	and	r2, r2, #7
    9c00:	e200003f 	and	r0, r0, #63	@ 0x3f
    9c04:	e1800304 	orr	r0, r0, r4, lsl #6
    9c08:	e1800902 	orr	r0, r0, r2, lsl #18
    9c0c:	e2832004 	add	r2, r3, #4
    9c10:	eaffffe1 	b	9b9c <_RNvNtNtCscA5RF7Ru5It_7pi_side8language5parse11parse_value.llvm.15442064674751795473+0x64c>
    9c14:	e1840602 	orr	r0, r4, r2, lsl #12
    9c18:	e2832003 	add	r2, r3, #3
    9c1c:	eaffffde 	b	9b9c <_RNvNtNtCscA5RF7Ru5It_7pi_side8language5parse11parse_value.llvm.15442064674751795473+0x64c>
    9c20:	e3a04000 	mov	r4, #0
    9c24:	e3560000 	cmp	r6, #0
    9c28:	0a000075 	beq	9e04 <_RNvNtNtCscA5RF7Ru5It_7pi_side8language5parse11parse_value.llvm.15442064674751795473+0x8b4>
    9c2c:	e1a05006 	mov	r5, r6
    9c30:	ea000088 	b	9e58 <_RNvNtNtCscA5RF7Ru5It_7pi_side8language5parse11parse_value.llvm.15442064674751795473+0x908>
    9c34:	e59da018 	ldr	sl, [sp, #24]
    9c38:	e3550000 	cmp	r5, #0
    9c3c:	0a000080 	beq	9e44 <_RNvNtNtCscA5RF7Ru5It_7pi_side8language5parse11parse_value.llvm.15442064674751795473+0x8f4>
    9c40:	e59d0020 	ldr	r0, [sp, #32]
    9c44:	e1560005 	cmp	r6, r5
    9c48:	e0800005 	add	r0, r0, r5
    9c4c:	9a00007e 	bls	9e4c <_RNvNtNtCscA5RF7Ru5It_7pi_side8language5parse11parse_value.llvm.15442064674751795473+0x8fc>
    9c50:	e1d010d1 	ldrsb	r1, [r0, #1]
    9c54:	e3710040 	cmn	r1, #64	@ 0x40
    9c58:	aa00007c 	bge	9e50 <_RNvNtNtCscA5RF7Ru5It_7pi_side8language5parse11parse_value.llvm.15442064674751795473+0x900>
    9c5c:	e59f0fd0 	ldr	r0, [pc, #4048]	@ ac34 <_RNvNtNtCscA5RF7Ru5It_7pi_side8language5parse11parse_value.llvm.15442064674751795473+0x16e4>
    9c60:	e1a01006 	mov	r1, r6
    9c64:	e58d0000 	str	r0, [sp]
    9c68:	e1a00009 	mov	r0, r9
    9c6c:	e3a02000 	mov	r2, #0
    9c70:	e1a03005 	mov	r3, r5
    9c74:	eb005839 	bl	1fd60 <_RNvNtCs5HYdw2IoCB0_4core3str16slice_error_fail>
    9c78:	e5d92001 	ldrb	r2, [r9, #1]
    9c7c:	e5d90000 	ldrb	r0, [r9]
    9c80:	e1800402 	orr	r0, r0, r2, lsl #8
    9c84:	e3a02e83 	mov	r2, #2096	@ 0x830
    9c88:	e3822a07 	orr	r2, r2, #28672	@ 0x7000
    9c8c:	e1500002 	cmp	r0, r2
    9c90:	0a000017 	beq	9cf4 <_RNvNtNtCscA5RF7Ru5It_7pi_side8language5parse11parse_value.llvm.15442064674751795473+0x7a4>
    9c94:	e5d92001 	ldrb	r2, [r9, #1]
    9c98:	e5d90000 	ldrb	r0, [r9]
    9c9c:	e1800402 	orr	r0, r0, r2, lsl #8
    9ca0:	e3a02e83 	mov	r2, #2096	@ 0x830
    9ca4:	e3822a05 	orr	r2, r2, #20480	@ 0x5000
    9ca8:	e1500002 	cmp	r0, r2
    9cac:	0a000010 	beq	9cf4 <_RNvNtNtCscA5RF7Ru5It_7pi_side8language5parse11parse_value.llvm.15442064674751795473+0x7a4>
    9cb0:	e5d92001 	ldrb	r2, [r9, #1]
    9cb4:	e5d90000 	ldrb	r0, [r9]
    9cb8:	e1800402 	orr	r0, r0, r2, lsl #8
    9cbc:	e3a02e23 	mov	r2, #560	@ 0x230
    9cc0:	e3822a06 	orr	r2, r2, #24576	@ 0x6000
    9cc4:	e1500002 	cmp	r0, r2
    9cc8:	0a00008c 	beq	9f00 <_RNvNtNtCscA5RF7Ru5It_7pi_side8language5parse11parse_value.llvm.15442064674751795473+0x9b0>
    9ccc:	e5d92001 	ldrb	r2, [r9, #1]
    9cd0:	e5d90000 	ldrb	r0, [r9]
    9cd4:	e1800402 	orr	r0, r0, r2, lsl #8
    9cd8:	e3a02e23 	mov	r2, #560	@ 0x230
    9cdc:	e3822901 	orr	r2, r2, #16384	@ 0x4000
    9ce0:	e1500002 	cmp	r0, r2
    9ce4:	0a000085 	beq	9f00 <_RNvNtNtCscA5RF7Ru5It_7pi_side8language5parse11parse_value.llvm.15442064674751795473+0x9b0>
    9ce8:	e59d0024 	ldr	r0, [sp, #36]	@ 0x24
    9cec:	e1a06007 	mov	r6, r7
    9cf0:	eaffffa3 	b	9b84 <_RNvNtNtCscA5RF7Ru5It_7pi_side8language5parse11parse_value.llvm.15442064674751795473+0x634>
    9cf4:	e3570002 	cmp	r7, #2
    9cf8:	0a000003 	beq	9d0c <_RNvNtNtCscA5RF7Ru5It_7pi_side8language5parse11parse_value.llvm.15442064674751795473+0x7bc>
    9cfc:	e59d0020 	ldr	r0, [sp, #32]
    9d00:	e1d000d3 	ldrsb	r0, [r0, #3]
    9d04:	e3700041 	cmn	r0, #65	@ 0x41
    9d08:	da0008ec 	ble	c0c0 <_RNvNtNtCscA5RF7Ru5It_7pi_side8language5parse11parse_value.llvm.15442064674751795473+0x2b70>
    9d0c:	e59d2020 	ldr	r2, [sp, #32]
    9d10:	e59d0024 	ldr	r0, [sp, #36]	@ 0x24
    9d14:	e59fefbc 	ldr	lr, [pc, #4028]	@ acd8 <_RNvNtNtCscA5RF7Ru5It_7pi_side8language5parse11parse_value.llvm.15442064674751795473+0x1788>
    9d18:	e2829003 	add	r9, r2, #3
    9d1c:	e082a000 	add	sl, r2, r0
    9d20:	e2406003 	sub	r6, r0, #3
    9d24:	e3a00000 	mov	r0, #0
    9d28:	e1a02009 	mov	r2, r9
    9d2c:	e152000a 	cmp	r2, sl
    9d30:	0a00006c 	beq	9ee8 <_RNvNtNtCscA5RF7Ru5It_7pi_side8language5parse11parse_value.llvm.15442064674751795473+0x998>
    9d34:	e1a03000 	mov	r3, r0
    9d38:	e1a00002 	mov	r0, r2
    9d3c:	e0d240d1 	ldrsb	r4, [r2], #1
    9d40:	e3740001 	cmn	r4, #1
    9d44:	e6ef5074 	uxtb	r5, r4
    9d48:	ca000015 	bgt	9da4 <_RNvNtNtCscA5RF7Ru5It_7pi_side8language5parse11parse_value.llvm.15442064674751795473+0x854>
    9d4c:	e5d04001 	ldrb	r4, [r0, #1]
    9d50:	e205201f 	and	r2, r5, #31
    9d54:	e35500e0 	cmp	r5, #224	@ 0xe0
    9d58:	e204403f 	and	r4, r4, #63	@ 0x3f
    9d5c:	3a00000b 	bcc	9d90 <_RNvNtNtCscA5RF7Ru5It_7pi_side8language5parse11parse_value.llvm.15442064674751795473+0x840>
    9d60:	e5d07002 	ldrb	r7, [r0, #2]
    9d64:	e35500f0 	cmp	r5, #240	@ 0xf0
    9d68:	e207703f 	and	r7, r7, #63	@ 0x3f
    9d6c:	e1874304 	orr	r4, r7, r4, lsl #6
    9d70:	3a000009 	bcc	9d9c <_RNvNtNtCscA5RF7Ru5It_7pi_side8language5parse11parse_value.llvm.15442064674751795473+0x84c>
    9d74:	e5d05003 	ldrb	r5, [r0, #3]
    9d78:	e2022007 	and	r2, r2, #7
    9d7c:	e205503f 	and	r5, r5, #63	@ 0x3f
    9d80:	e1854304 	orr	r4, r5, r4, lsl #6
    9d84:	e1845902 	orr	r5, r4, r2, lsl #18
    9d88:	e2802004 	add	r2, r0, #4
    9d8c:	ea000004 	b	9da4 <_RNvNtNtCscA5RF7Ru5It_7pi_side8language5parse11parse_value.llvm.15442064674751795473+0x854>
    9d90:	e1845302 	orr	r5, r4, r2, lsl #6
    9d94:	e2802002 	add	r2, r0, #2
    9d98:	ea000001 	b	9da4 <_RNvNtNtCscA5RF7Ru5It_7pi_side8language5parse11parse_value.llvm.15442064674751795473+0x854>
    9d9c:	e1845602 	orr	r5, r4, r2, lsl #12
    9da0:	e2802003 	add	r2, r0, #3
    9da4:	e0430000 	sub	r0, r3, r0
    9da8:	e245403a 	sub	r4, r5, #58	@ 0x3a
    9dac:	e0800002 	add	r0, r0, r2
    9db0:	e374000b 	cmn	r4, #11
    9db4:	8affffdc 	bhi	9d2c <_RNvNtNtCscA5RF7Ru5It_7pi_side8language5parse11parse_value.llvm.15442064674751795473+0x7dc>
    9db8:	e005400e 	and	r4, r5, lr
    9dbc:	e2444047 	sub	r4, r4, #71	@ 0x47
    9dc0:	e3740007 	cmn	r4, #7
    9dc4:	8affffd8 	bhi	9d2c <_RNvNtNtCscA5RF7Ru5It_7pi_side8language5parse11parse_value.llvm.15442064674751795473+0x7dc>
    9dc8:	e3530000 	cmp	r3, #0
    9dcc:	0a0000d3 	beq	a120 <_RNvNtNtCscA5RF7Ru5It_7pi_side8language5parse11parse_value.llvm.15442064674751795473+0xbd0>
    9dd0:	e59d501c 	ldr	r5, [sp, #28]
    9dd4:	e1560003 	cmp	r6, r3
    9dd8:	9a0000d2 	bls	a128 <_RNvNtNtCscA5RF7Ru5It_7pi_side8language5parse11parse_value.llvm.15442064674751795473+0xbd8>
    9ddc:	e0890003 	add	r0, r9, r3
    9de0:	e1d000d0 	ldrsb	r0, [r0]
    9de4:	e3700040 	cmn	r0, #64	@ 0x40
    9de8:	aa0000cf 	bge	a12c <_RNvNtNtCscA5RF7Ru5It_7pi_side8language5parse11parse_value.llvm.15442064674751795473+0xbdc>
    9dec:	e59f0e40 	ldr	r0, [pc, #3648]	@ ac34 <_RNvNtNtCscA5RF7Ru5It_7pi_side8language5parse11parse_value.llvm.15442064674751795473+0x16e4>
    9df0:	e1a01006 	mov	r1, r6
    9df4:	e58d0000 	str	r0, [sp]
    9df8:	e1a00009 	mov	r0, r9
    9dfc:	e3a02000 	mov	r2, #0
    9e00:	eb0057d6 	bl	1fd60 <_RNvNtCs5HYdw2IoCB0_4core3str16slice_error_fail>
    9e04:	e59da018 	ldr	sl, [sp, #24]
    9e08:	e3a02010 	mov	r2, #16
    9e0c:	e3a06000 	mov	r6, #0
    9e10:	ea00015b 	b	a384 <_RNvNtNtCscA5RF7Ru5It_7pi_side8language5parse11parse_value.llvm.15442064674751795473+0xe34>
    9e14:	e59d1048 	ldr	r1, [sp, #72]	@ 0x48
    9e18:	e3a02000 	mov	r2, #0
    9e1c:	e58a0010 	str	r0, [sl, #16]
    9e20:	e3a00007 	mov	r0, #7
    9e24:	e58a100c 	str	r1, [sl, #12]
    9e28:	e58a6014 	str	r6, [sl, #20]
    9e2c:	e58a2018 	str	r2, [sl, #24]
    9e30:	e5ca0008 	strb	r0, [sl, #8]
    9e34:	e58a7000 	str	r7, [sl]
    9e38:	e58a5004 	str	r5, [sl, #4]
    9e3c:	e28ddf49 	add	sp, sp, #292	@ 0x124
    9e40:	e8bd8ff0 	pop	{r4, r5, r6, r7, r8, r9, sl, fp, pc}
    9e44:	e3a02010 	mov	r2, #16
    9e48:	ea00014d 	b	a384 <_RNvNtNtCscA5RF7Ru5It_7pi_side8language5parse11parse_value.llvm.15442064674751795473+0xe34>
    9e4c:	1affff82 	bne	9c5c <_RNvNtNtCscA5RF7Ru5It_7pi_side8language5parse11parse_value.llvm.15442064674751795473+0x70c>
    9e50:	e0464005 	sub	r4, r6, r5
    9e54:	e280a001 	add	sl, r0, #1
    9e58:	e28d0048 	add	r0, sp, #72	@ 0x48
    9e5c:	e1a01009 	mov	r1, r9
    9e60:	e1a02005 	mov	r2, r5
    9e64:	ebfffd47 	bl	9388 <_RNvMsv_NtCs5HYdw2IoCB0_4core3numj16from_ascii_radix>
    9e68:	e5dd0048 	ldrb	r0, [sp, #72]	@ 0x48
    9e6c:	e3500001 	cmp	r0, #1
    9e70:	1a00000d 	bne	9eac <_RNvNtNtCscA5RF7Ru5It_7pi_side8language5parse11parse_value.llvm.15442064674751795473+0x95c>
    9e74:	e59d501c 	ldr	r5, [sp, #28]
    9e78:	e59d1024 	ldr	r1, [sp, #36]	@ 0x24
    9e7c:	e3a00011 	mov	r0, #17
    9e80:	e5851000 	str	r1, [r5]
    9e84:	e59d1018 	ldr	r1, [sp, #24]
    9e88:	e5850004 	str	r0, [r5, #4]
    9e8c:	e3a00002 	mov	r0, #2
    9e90:	e581000c 	str	r0, [r1, #12]
    9e94:	e59d0020 	ldr	r0, [sp, #32]
    9e98:	e5810010 	str	r0, [r1, #16]
    9e9c:	e3a000ff 	mov	r0, #255	@ 0xff
    9ea0:	e5c10008 	strb	r0, [r1, #8]
    9ea4:	e28ddf49 	add	sp, sp, #292	@ 0x124
    9ea8:	e8bd8ff0 	pop	{r4, r5, r6, r7, r8, r9, sl, fp, pc}
    9eac:	e59d004c 	ldr	r0, [sp, #76]	@ 0x4c
    9eb0:	e59d501c 	ldr	r5, [sp, #28]
    9eb4:	e59d2018 	ldr	r2, [sp, #24]
    9eb8:	e3a01000 	mov	r1, #0
    9ebc:	e5851000 	str	r1, [r5]
    9ec0:	e5851004 	str	r1, [r5, #4]
    9ec4:	e3a01002 	mov	r1, #2
    9ec8:	e5820010 	str	r0, [r2, #16]
    9ecc:	e3a00006 	mov	r0, #6
    9ed0:	e582100c 	str	r1, [r2, #12]
    9ed4:	e5c20008 	strb	r0, [r2, #8]
    9ed8:	e582a000 	str	sl, [r2]
    9edc:	e5824004 	str	r4, [r2, #4]
    9ee0:	e28ddf49 	add	sp, sp, #292	@ 0x124
    9ee4:	e8bd8ff0 	pop	{r4, r5, r6, r7, r8, r9, sl, fp, pc}
    9ee8:	e3a04000 	mov	r4, #0
    9eec:	e3560000 	cmp	r6, #0
    9ef0:	0a000087 	beq	a114 <_RNvNtNtCscA5RF7Ru5It_7pi_side8language5parse11parse_value.llvm.15442064674751795473+0xbc4>
    9ef4:	e1a03006 	mov	r3, r6
    9ef8:	e59d501c 	ldr	r5, [sp, #28]
    9efc:	ea00008c 	b	a134 <_RNvNtNtCscA5RF7Ru5It_7pi_side8language5parse11parse_value.llvm.15442064674751795473+0xbe4>
    9f00:	e3570002 	cmp	r7, #2
    9f04:	0a000003 	beq	9f18 <_RNvNtNtCscA5RF7Ru5It_7pi_side8language5parse11parse_value.llvm.15442064674751795473+0x9c8>
    9f08:	e59d0020 	ldr	r0, [sp, #32]
    9f0c:	e1d000d3 	ldrsb	r0, [r0, #3]
    9f10:	e3700041 	cmn	r0, #65	@ 0x41
    9f14:	da00087d 	ble	c110 <_RNvNtNtCscA5RF7Ru5It_7pi_side8language5parse11parse_value.llvm.15442064674751795473+0x2bc0>
    9f18:	e59d3020 	ldr	r3, [sp, #32]
    9f1c:	e59d0024 	ldr	r0, [sp, #36]	@ 0x24
    9f20:	e59f2db0 	ldr	r2, [pc, #3504]	@ acd8 <_RNvNtNtCscA5RF7Ru5It_7pi_side8language5parse11parse_value.llvm.15442064674751795473+0x1788>
    9f24:	e2839003 	add	r9, r3, #3
    9f28:	e083a000 	add	sl, r3, r0
    9f2c:	e2406003 	sub	r6, r0, #3
    9f30:	e282e01f 	add	lr, r2, #31
    9f34:	e3a00000 	mov	r0, #0
    9f38:	e1a04009 	mov	r4, r9
    9f3c:	ea000006 	b	9f5c <_RNvNtNtCscA5RF7Ru5It_7pi_side8language5parse11parse_value.llvm.15442064674751795473+0xa0c>
    9f40:	e1852304 	orr	r2, r5, r4, lsl #6
    9f44:	e2804002 	add	r4, r0, #2
    9f48:	e0430000 	sub	r0, r3, r0
    9f4c:	e002200e 	and	r2, r2, lr
    9f50:	e0800004 	add	r0, r0, r4
    9f54:	e3520030 	cmp	r2, #48	@ 0x30
    9f58:	1a000020 	bne	9fe0 <_RNvNtNtCscA5RF7Ru5It_7pi_side8language5parse11parse_value.llvm.15442064674751795473+0xa90>
    9f5c:	e154000a 	cmp	r4, sl
    9f60:	0a000019 	beq	9fcc <_RNvNtNtCscA5RF7Ru5It_7pi_side8language5parse11parse_value.llvm.15442064674751795473+0xa7c>
    9f64:	e1a03000 	mov	r3, r0
    9f68:	e1a00004 	mov	r0, r4
    9f6c:	e0d450d1 	ldrsb	r5, [r4], #1
    9f70:	e3750001 	cmn	r5, #1
    9f74:	e6ef2075 	uxtb	r2, r5
    9f78:	cafffff2 	bgt	9f48 <_RNvNtNtCscA5RF7Ru5It_7pi_side8language5parse11parse_value.llvm.15442064674751795473+0x9f8>
    9f7c:	e5d05001 	ldrb	r5, [r0, #1]
    9f80:	e202401f 	and	r4, r2, #31
    9f84:	e35200e0 	cmp	r2, #224	@ 0xe0
    9f88:	e205503f 	and	r5, r5, #63	@ 0x3f
    9f8c:	3affffeb 	bcc	9f40 <_RNvNtNtCscA5RF7Ru5It_7pi_side8language5parse11parse_value.llvm.15442064674751795473+0x9f0>
    9f90:	e5d07002 	ldrb	r7, [r0, #2]
    9f94:	e35200f0 	cmp	r2, #240	@ 0xf0
    9f98:	e207703f 	and	r7, r7, #63	@ 0x3f
    9f9c:	e1875305 	orr	r5, r7, r5, lsl #6
    9fa0:	3a000006 	bcc	9fc0 <_RNvNtNtCscA5RF7Ru5It_7pi_side8language5parse11parse_value.llvm.15442064674751795473+0xa70>
    9fa4:	e5d02003 	ldrb	r2, [r0, #3]
    9fa8:	e2044007 	and	r4, r4, #7
    9fac:	e202203f 	and	r2, r2, #63	@ 0x3f
    9fb0:	e1822305 	orr	r2, r2, r5, lsl #6
    9fb4:	e1822904 	orr	r2, r2, r4, lsl #18
    9fb8:	e2804004 	add	r4, r0, #4
    9fbc:	eaffffe1 	b	9f48 <_RNvNtNtCscA5RF7Ru5It_7pi_side8language5parse11parse_value.llvm.15442064674751795473+0x9f8>
    9fc0:	e1852604 	orr	r2, r5, r4, lsl #12
    9fc4:	e2804003 	add	r4, r0, #3
    9fc8:	eaffffde 	b	9f48 <_RNvNtNtCscA5RF7Ru5It_7pi_side8language5parse11parse_value.llvm.15442064674751795473+0x9f8>
    9fcc:	e3a04000 	mov	r4, #0
    9fd0:	e3560000 	cmp	r6, #0
    9fd4:	0a0000e4 	beq	a36c <_RNvNtNtCscA5RF7Ru5It_7pi_side8language5parse11parse_value.llvm.15442064674751795473+0xe1c>
    9fd8:	e1a03006 	mov	r3, r6
    9fdc:	ea000003 	b	9ff0 <_RNvNtNtCscA5RF7Ru5It_7pi_side8language5parse11parse_value.llvm.15442064674751795473+0xaa0>
    9fe0:	e3530000 	cmp	r3, #0
    9fe4:	0a0000e3 	beq	a378 <_RNvNtNtCscA5RF7Ru5It_7pi_side8language5parse11parse_value.llvm.15442064674751795473+0xe28>
    9fe8:	e089a003 	add	sl, r9, r3
    9fec:	e0464003 	sub	r4, r6, r3
    9ff0:	e59d501c 	ldr	r5, [sp, #28]
    9ff4:	e3530001 	cmp	r3, #1
    9ff8:	e5d90000 	ldrb	r0, [r9]
    9ffc:	1a000002 	bne	a00c <_RNvNtNtCscA5RF7Ru5It_7pi_side8language5parse11parse_value.llvm.15442064674751795473+0xabc>
    a000:	e350002b 	cmp	r0, #43	@ 0x2b
    a004:	1350002d 	cmpne	r0, #45	@ 0x2d
    a008:	0affff9a 	beq	9e78 <_RNvNtNtCscA5RF7Ru5It_7pi_side8language5parse11parse_value.llvm.15442064674751795473+0x928>
    a00c:	e350002b 	cmp	r0, #43	@ 0x2b
    a010:	02899001 	addeq	r9, r9, #1
    a014:	02433001 	subeq	r3, r3, #1
    a018:	e3530009 	cmp	r3, #9
    a01c:	2a0000c2 	bcs	a32c <_RNvNtNtCscA5RF7Ru5It_7pi_side8language5parse11parse_value.llvm.15442064674751795473+0xddc>
    a020:	e3530000 	cmp	r3, #0
    a024:	0a0000be 	beq	a324 <_RNvNtNtCscA5RF7Ru5It_7pi_side8language5parse11parse_value.llvm.15442064674751795473+0xdd4>
    a028:	e5d90000 	ldrb	r0, [r9]
    a02c:	e2400030 	sub	r0, r0, #48	@ 0x30
    a030:	e3500001 	cmp	r0, #1
    a034:	8affff8f 	bhi	9e78 <_RNvNtNtCscA5RF7Ru5It_7pi_side8language5parse11parse_value.llvm.15442064674751795473+0x928>
    a038:	e3530001 	cmp	r3, #1
    a03c:	0affff9c 	beq	9eb4 <_RNvNtNtCscA5RF7Ru5It_7pi_side8language5parse11parse_value.llvm.15442064674751795473+0x964>
    a040:	e5d91001 	ldrb	r1, [r9, #1]
    a044:	e2411030 	sub	r1, r1, #48	@ 0x30
    a048:	e3510001 	cmp	r1, #1
    a04c:	8affff89 	bhi	9e78 <_RNvNtNtCscA5RF7Ru5It_7pi_side8language5parse11parse_value.llvm.15442064674751795473+0x928>
    a050:	e1810080 	orr	r0, r1, r0, lsl #1
    a054:	e3530002 	cmp	r3, #2
    a058:	0affff95 	beq	9eb4 <_RNvNtNtCscA5RF7Ru5It_7pi_side8language5parse11parse_value.llvm.15442064674751795473+0x964>
    a05c:	e5d91002 	ldrb	r1, [r9, #2]
    a060:	e2411030 	sub	r1, r1, #48	@ 0x30
    a064:	e3510001 	cmp	r1, #1
    a068:	8affff82 	bhi	9e78 <_RNvNtNtCscA5RF7Ru5It_7pi_side8language5parse11parse_value.llvm.15442064674751795473+0x928>
    a06c:	e1810080 	orr	r0, r1, r0, lsl #1
    a070:	e3530003 	cmp	r3, #3
    a074:	0affff8d 	beq	9eb0 <_RNvNtNtCscA5RF7Ru5It_7pi_side8language5parse11parse_value.llvm.15442064674751795473+0x960>
    a078:	e5d91003 	ldrb	r1, [r9, #3]
    a07c:	e59d501c 	ldr	r5, [sp, #28]
    a080:	e2411030 	sub	r1, r1, #48	@ 0x30
    a084:	e3510001 	cmp	r1, #1
    a088:	8affff7a 	bhi	9e78 <_RNvNtNtCscA5RF7Ru5It_7pi_side8language5parse11parse_value.llvm.15442064674751795473+0x928>
    a08c:	e1810080 	orr	r0, r1, r0, lsl #1
    a090:	e3530004 	cmp	r3, #4
    a094:	0affff85 	beq	9eb0 <_RNvNtNtCscA5RF7Ru5It_7pi_side8language5parse11parse_value.llvm.15442064674751795473+0x960>
    a098:	e5d91004 	ldrb	r1, [r9, #4]
    a09c:	e59d501c 	ldr	r5, [sp, #28]
    a0a0:	e2411030 	sub	r1, r1, #48	@ 0x30
    a0a4:	e3510001 	cmp	r1, #1
    a0a8:	8affff72 	bhi	9e78 <_RNvNtNtCscA5RF7Ru5It_7pi_side8language5parse11parse_value.llvm.15442064674751795473+0x928>
    a0ac:	e1810080 	orr	r0, r1, r0, lsl #1
    a0b0:	e3530005 	cmp	r3, #5
    a0b4:	0affff7d 	beq	9eb0 <_RNvNtNtCscA5RF7Ru5It_7pi_side8language5parse11parse_value.llvm.15442064674751795473+0x960>
    a0b8:	e5d91005 	ldrb	r1, [r9, #5]
    a0bc:	e59d501c 	ldr	r5, [sp, #28]
    a0c0:	e2411030 	sub	r1, r1, #48	@ 0x30
    a0c4:	e3510001 	cmp	r1, #1
    a0c8:	8affff6a 	bhi	9e78 <_RNvNtNtCscA5RF7Ru5It_7pi_side8language5parse11parse_value.llvm.15442064674751795473+0x928>
    a0cc:	e1810080 	orr	r0, r1, r0, lsl #1
    a0d0:	e3530006 	cmp	r3, #6
    a0d4:	0affff75 	beq	9eb0 <_RNvNtNtCscA5RF7Ru5It_7pi_side8language5parse11parse_value.llvm.15442064674751795473+0x960>
    a0d8:	e5d91006 	ldrb	r1, [r9, #6]
    a0dc:	e59d501c 	ldr	r5, [sp, #28]
    a0e0:	e2411030 	sub	r1, r1, #48	@ 0x30
    a0e4:	e3510001 	cmp	r1, #1
    a0e8:	8affff62 	bhi	9e78 <_RNvNtNtCscA5RF7Ru5It_7pi_side8language5parse11parse_value.llvm.15442064674751795473+0x928>
    a0ec:	e1810080 	orr	r0, r1, r0, lsl #1
    a0f0:	e3530007 	cmp	r3, #7
    a0f4:	0affff6d 	beq	9eb0 <_RNvNtNtCscA5RF7Ru5It_7pi_side8language5parse11parse_value.llvm.15442064674751795473+0x960>
    a0f8:	e5d91007 	ldrb	r1, [r9, #7]
    a0fc:	e59d501c 	ldr	r5, [sp, #28]
    a100:	e2411030 	sub	r1, r1, #48	@ 0x30
    a104:	e3510001 	cmp	r1, #1
    a108:	8affff5a 	bhi	9e78 <_RNvNtNtCscA5RF7Ru5It_7pi_side8language5parse11parse_value.llvm.15442064674751795473+0x928>
    a10c:	e1810080 	orr	r0, r1, r0, lsl #1
    a110:	eaffff67 	b	9eb4 <_RNvNtNtCscA5RF7Ru5It_7pi_side8language5parse11parse_value.llvm.15442064674751795473+0x964>
    a114:	e3a02011 	mov	r2, #17
    a118:	e3a06000 	mov	r6, #0
    a11c:	ea000096 	b	a37c <_RNvNtNtCscA5RF7Ru5It_7pi_side8language5parse11parse_value.llvm.15442064674751795473+0xe2c>
    a120:	e3a02011 	mov	r2, #17
    a124:	ea000094 	b	a37c <_RNvNtNtCscA5RF7Ru5It_7pi_side8language5parse11parse_value.llvm.15442064674751795473+0xe2c>
    a128:	1affff2f 	bne	9dec <_RNvNtNtCscA5RF7Ru5It_7pi_side8language5parse11parse_value.llvm.15442064674751795473+0x89c>
    a12c:	e089a003 	add	sl, r9, r3
    a130:	e0464003 	sub	r4, r6, r3
    a134:	e5d90000 	ldrb	r0, [r9]
    a138:	e3530001 	cmp	r3, #1
    a13c:	1a000002 	bne	a14c <_RNvNtNtCscA5RF7Ru5It_7pi_side8language5parse11parse_value.llvm.15442064674751795473+0xbfc>
    a140:	e350002b 	cmp	r0, #43	@ 0x2b
    a144:	1350002d 	cmpne	r0, #45	@ 0x2d
    a148:	0affff4a 	beq	9e78 <_RNvNtNtCscA5RF7Ru5It_7pi_side8language5parse11parse_value.llvm.15442064674751795473+0x928>
    a14c:	e350002b 	cmp	r0, #43	@ 0x2b
    a150:	02899001 	addeq	r9, r9, #1
    a154:	02433001 	subeq	r3, r3, #1
    a158:	e3530009 	cmp	r3, #9
    a15c:	2a00005c 	bcs	a2d4 <_RNvNtNtCscA5RF7Ru5It_7pi_side8language5parse11parse_value.llvm.15442064674751795473+0xd84>
    a160:	e3530000 	cmp	r3, #0
    a164:	0a00006e 	beq	a324 <_RNvNtNtCscA5RF7Ru5It_7pi_side8language5parse11parse_value.llvm.15442064674751795473+0xdd4>
    a168:	e5d91000 	ldrb	r1, [r9]
    a16c:	e2412041 	sub	r2, r1, #65	@ 0x41
    a170:	e2410030 	sub	r0, r1, #48	@ 0x30
    a174:	e3c22020 	bic	r2, r2, #32
    a178:	e3510039 	cmp	r1, #57	@ 0x39
    a17c:	8282000a 	addhi	r0, r2, #10
    a180:	e350000f 	cmp	r0, #15
    a184:	8affff3b 	bhi	9e78 <_RNvNtNtCscA5RF7Ru5It_7pi_side8language5parse11parse_value.llvm.15442064674751795473+0x928>
    a188:	e3530001 	cmp	r3, #1
    a18c:	0affff48 	beq	9eb4 <_RNvNtNtCscA5RF7Ru5It_7pi_side8language5parse11parse_value.llvm.15442064674751795473+0x964>
    a190:	e5d92001 	ldrb	r2, [r9, #1]
    a194:	e2427041 	sub	r7, r2, #65	@ 0x41
    a198:	e2421030 	sub	r1, r2, #48	@ 0x30
    a19c:	e3c77020 	bic	r7, r7, #32
    a1a0:	e3520039 	cmp	r2, #57	@ 0x39
    a1a4:	8287100a 	addhi	r1, r7, #10
    a1a8:	e351000f 	cmp	r1, #15
    a1ac:	8affff31 	bhi	9e78 <_RNvNtNtCscA5RF7Ru5It_7pi_side8language5parse11parse_value.llvm.15442064674751795473+0x928>
    a1b0:	e1810200 	orr	r0, r1, r0, lsl #4
    a1b4:	e3530002 	cmp	r3, #2
    a1b8:	0affff3d 	beq	9eb4 <_RNvNtNtCscA5RF7Ru5It_7pi_side8language5parse11parse_value.llvm.15442064674751795473+0x964>
    a1bc:	e5d92002 	ldrb	r2, [r9, #2]
    a1c0:	e2427041 	sub	r7, r2, #65	@ 0x41
    a1c4:	e2421030 	sub	r1, r2, #48	@ 0x30
    a1c8:	e3c77020 	bic	r7, r7, #32
    a1cc:	e3520039 	cmp	r2, #57	@ 0x39
    a1d0:	8287100a 	addhi	r1, r7, #10
    a1d4:	e351000f 	cmp	r1, #15
    a1d8:	8affff26 	bhi	9e78 <_RNvNtNtCscA5RF7Ru5It_7pi_side8language5parse11parse_value.llvm.15442064674751795473+0x928>
    a1dc:	e1810200 	orr	r0, r1, r0, lsl #4
    a1e0:	e3530003 	cmp	r3, #3
    a1e4:	0affff31 	beq	9eb0 <_RNvNtNtCscA5RF7Ru5It_7pi_side8language5parse11parse_value.llvm.15442064674751795473+0x960>
    a1e8:	e5d92003 	ldrb	r2, [r9, #3]
    a1ec:	e59d501c 	ldr	r5, [sp, #28]
    a1f0:	e2427041 	sub	r7, r2, #65	@ 0x41
    a1f4:	e2421030 	sub	r1, r2, #48	@ 0x30
    a1f8:	e3c77020 	bic	r7, r7, #32
    a1fc:	e3520039 	cmp	r2, #57	@ 0x39
    a200:	8287100a 	addhi	r1, r7, #10
    a204:	e351000f 	cmp	r1, #15
    a208:	8affff1a 	bhi	9e78 <_RNvNtNtCscA5RF7Ru5It_7pi_side8language5parse11parse_value.llvm.15442064674751795473+0x928>
    a20c:	e1810200 	orr	r0, r1, r0, lsl #4
    a210:	e3530004 	cmp	r3, #4
    a214:	0affff25 	beq	9eb0 <_RNvNtNtCscA5RF7Ru5It_7pi_side8language5parse11parse_value.llvm.15442064674751795473+0x960>
    a218:	e5d92004 	ldrb	r2, [r9, #4]
    a21c:	e59d501c 	ldr	r5, [sp, #28]
    a220:	e2427041 	sub	r7, r2, #65	@ 0x41
    a224:	e2421030 	sub	r1, r2, #48	@ 0x30
    a228:	e3c77020 	bic	r7, r7, #32
    a22c:	e3520039 	cmp	r2, #57	@ 0x39
    a230:	8287100a 	addhi	r1, r7, #10
    a234:	e351000f 	cmp	r1, #15
    a238:	8affff0e 	bhi	9e78 <_RNvNtNtCscA5RF7Ru5It_7pi_side8language5parse11parse_value.llvm.15442064674751795473+0x928>
    a23c:	e1810200 	orr	r0, r1, r0, lsl #4
    a240:	e3530005 	cmp	r3, #5
    a244:	0affff19 	beq	9eb0 <_RNvNtNtCscA5RF7Ru5It_7pi_side8language5parse11parse_value.llvm.15442064674751795473+0x960>
    a248:	e5d92005 	ldrb	r2, [r9, #5]
    a24c:	e59d501c 	ldr	r5, [sp, #28]
    a250:	e2427041 	sub	r7, r2, #65	@ 0x41
    a254:	e2421030 	sub	r1, r2, #48	@ 0x30
    a258:	e3c77020 	bic	r7, r7, #32
    a25c:	e3520039 	cmp	r2, #57	@ 0x39
    a260:	8287100a 	addhi	r1, r7, #10
    a264:	e351000f 	cmp	r1, #15
    a268:	8affff02 	bhi	9e78 <_RNvNtNtCscA5RF7Ru5It_7pi_side8language5parse11parse_value.llvm.15442064674751795473+0x928>
    a26c:	e1810200 	orr	r0, r1, r0, lsl #4
    a270:	e3530006 	cmp	r3, #6
    a274:	0affff0d 	beq	9eb0 <_RNvNtNtCscA5RF7Ru5It_7pi_side8language5parse11parse_value.llvm.15442064674751795473+0x960>
    a278:	e5d92006 	ldrb	r2, [r9, #6]
    a27c:	e59d501c 	ldr	r5, [sp, #28]
    a280:	e2427041 	sub	r7, r2, #65	@ 0x41
    a284:	e2421030 	sub	r1, r2, #48	@ 0x30
    a288:	e3c77020 	bic	r7, r7, #32
    a28c:	e3520039 	cmp	r2, #57	@ 0x39
    a290:	8287100a 	addhi	r1, r7, #10
    a294:	e351000f 	cmp	r1, #15
    a298:	8afffef6 	bhi	9e78 <_RNvNtNtCscA5RF7Ru5It_7pi_side8language5parse11parse_value.llvm.15442064674751795473+0x928>
    a29c:	e1810200 	orr	r0, r1, r0, lsl #4
    a2a0:	e3530007 	cmp	r3, #7
    a2a4:	0affff01 	beq	9eb0 <_RNvNtNtCscA5RF7Ru5It_7pi_side8language5parse11parse_value.llvm.15442064674751795473+0x960>
    a2a8:	e5d92007 	ldrb	r2, [r9, #7]
    a2ac:	e59d501c 	ldr	r5, [sp, #28]
    a2b0:	e2423041 	sub	r3, r2, #65	@ 0x41
    a2b4:	e2421030 	sub	r1, r2, #48	@ 0x30
    a2b8:	e3c33020 	bic	r3, r3, #32
    a2bc:	e3520039 	cmp	r2, #57	@ 0x39
    a2c0:	8283100a 	addhi	r1, r3, #10
    a2c4:	e351000f 	cmp	r1, #15
    a2c8:	8afffeea 	bhi	9e78 <_RNvNtNtCscA5RF7Ru5It_7pi_side8language5parse11parse_value.llvm.15442064674751795473+0x928>
    a2cc:	e1810200 	orr	r0, r1, r0, lsl #4
    a2d0:	eafffef7 	b	9eb4 <_RNvNtNtCscA5RF7Ru5It_7pi_side8language5parse11parse_value.llvm.15442064674751795473+0x964>
    a2d4:	e3a01000 	mov	r1, #0
    a2d8:	e3a00000 	mov	r0, #0
    a2dc:	e3530000 	cmp	r3, #0
    a2e0:	0afffef3 	beq	9eb4 <_RNvNtNtCscA5RF7Ru5It_7pi_side8language5parse11parse_value.llvm.15442064674751795473+0x964>
    a2e4:	e370021f 	cmn	r0, #-268435455	@ 0xf0000001
    a2e8:	8afffee2 	bhi	9e78 <_RNvNtNtCscA5RF7Ru5It_7pi_side8language5parse11parse_value.llvm.15442064674751795473+0x928>
    a2ec:	e4d92001 	ldrb	r2, [r9], #1
    a2f0:	e2426041 	sub	r6, r2, #65	@ 0x41
    a2f4:	e2427030 	sub	r7, r2, #48	@ 0x30
    a2f8:	e3c66020 	bic	r6, r6, #32
    a2fc:	e3520039 	cmp	r2, #57	@ 0x39
    a300:	8286700a 	addhi	r7, r6, #10
    a304:	e0970200 	adds	r0, r7, r0, lsl #4
    a308:	e2a12000 	adc	r2, r1, #0
    a30c:	e357000f 	cmp	r7, #15
    a310:	8afffed8 	bhi	9e78 <_RNvNtNtCscA5RF7Ru5It_7pi_side8language5parse11parse_value.llvm.15442064674751795473+0x928>
    a314:	e2433001 	sub	r3, r3, #1
    a318:	e3520000 	cmp	r2, #0
    a31c:	0affffee 	beq	a2dc <_RNvNtNtCscA5RF7Ru5It_7pi_side8language5parse11parse_value.llvm.15442064674751795473+0xd8c>
    a320:	eafffed4 	b	9e78 <_RNvNtNtCscA5RF7Ru5It_7pi_side8language5parse11parse_value.llvm.15442064674751795473+0x928>
    a324:	e3a00000 	mov	r0, #0
    a328:	eafffee1 	b	9eb4 <_RNvNtNtCscA5RF7Ru5It_7pi_side8language5parse11parse_value.llvm.15442064674751795473+0x964>
    a32c:	e3a01000 	mov	r1, #0
    a330:	e3a00000 	mov	r0, #0
    a334:	e3530000 	cmp	r3, #0
    a338:	0afffedd 	beq	9eb4 <_RNvNtNtCscA5RF7Ru5It_7pi_side8language5parse11parse_value.llvm.15442064674751795473+0x964>
    a33c:	e3500000 	cmp	r0, #0
    a340:	4afffecc 	bmi	9e78 <_RNvNtNtCscA5RF7Ru5It_7pi_side8language5parse11parse_value.llvm.15442064674751795473+0x928>
    a344:	e4d92001 	ldrb	r2, [r9], #1
    a348:	e2427030 	sub	r7, r2, #48	@ 0x30
    a34c:	e0970080 	adds	r0, r7, r0, lsl #1
    a350:	e2a12000 	adc	r2, r1, #0
    a354:	e3570001 	cmp	r7, #1
    a358:	8afffec6 	bhi	9e78 <_RNvNtNtCscA5RF7Ru5It_7pi_side8language5parse11parse_value.llvm.15442064674751795473+0x928>
    a35c:	e2433001 	sub	r3, r3, #1
    a360:	e3520000 	cmp	r2, #0
    a364:	0afffff2 	beq	a334 <_RNvNtNtCscA5RF7Ru5It_7pi_side8language5parse11parse_value.llvm.15442064674751795473+0xde4>
    a368:	eafffec2 	b	9e78 <_RNvNtNtCscA5RF7Ru5It_7pi_side8language5parse11parse_value.llvm.15442064674751795473+0x928>
    a36c:	e3a02024 	mov	r2, #36	@ 0x24
    a370:	e3a06000 	mov	r6, #0
    a374:	ea000000 	b	a37c <_RNvNtNtCscA5RF7Ru5It_7pi_side8language5parse11parse_value.llvm.15442064674751795473+0xe2c>
    a378:	e3a02024 	mov	r2, #36	@ 0x24
    a37c:	e59da018 	ldr	sl, [sp, #24]
    a380:	e59de01c 	ldr	lr, [sp, #28]
    a384:	e59d3024 	ldr	r3, [sp, #36]	@ 0x24
    a388:	e3530000 	cmp	r3, #0
    a38c:	e58e6000 	str	r6, [lr]
    a390:	e58e2004 	str	r2, [lr, #4]
    a394:	e58ac00c 	str	ip, [sl, #12]
    a398:	e58a9010 	str	r9, [sl, #16]
    a39c:	e5cab008 	strb	fp, [sl, #8]
    a3a0:	0a000024 	beq	a438 <_RNvNtNtCscA5RF7Ru5It_7pi_side8language5parse11parse_value.llvm.15442064674751795473+0xee8>
    a3a4:	e59d9020 	ldr	r9, [sp, #32]
    a3a8:	e1d910d0 	ldrsb	r1, [r9]
    a3ac:	e3710001 	cmn	r1, #1
    a3b0:	e6ef0071 	uxtb	r0, r1
    a3b4:	da000045 	ble	a4d0 <_RNvNtNtCscA5RF7Ru5It_7pi_side8language5parse11parse_value.llvm.15442064674751795473+0xf80>
    a3b8:	e1a0c009 	mov	ip, r9
    a3bc:	e1a01003 	mov	r1, r3
    a3c0:	e3500075 	cmp	r0, #117	@ 0x75
    a3c4:	1a00001d 	bne	a440 <_RNvNtNtCscA5RF7Ru5It_7pi_side8language5parse11parse_value.llvm.15442064674751795473+0xef0>
    a3c8:	e3a08010 	mov	r8, #16
    a3cc:	e3a01001 	mov	r1, #1
    a3d0:	e1a0c009 	mov	ip, r9
    a3d4:	e3530001 	cmp	r3, #1
    a3d8:	0a000018 	beq	a440 <_RNvNtNtCscA5RF7Ru5It_7pi_side8language5parse11parse_value.llvm.15442064674751795473+0xef0>
    a3dc:	e1fc00d1 	ldrsb	r0, [ip, #1]!
    a3e0:	e3700041 	cmn	r0, #65	@ 0x41
    a3e4:	da000718 	ble	c04c <_RNvNtNtCscA5RF7Ru5It_7pi_side8language5parse11parse_value.llvm.15442064674751795473+0x2afc>
    a3e8:	e6ef0070 	uxtb	r0, r0
    a3ec:	e6af1070 	sxtb	r1, r0
    a3f0:	e3710001 	cmn	r1, #1
    a3f4:	ca0001e0 	bgt	ab7c <_RNvNtNtCscA5RF7Ru5It_7pi_side8language5parse11parse_value.llvm.15442064674751795473+0x162c>
    a3f8:	e5d92002 	ldrb	r2, [r9, #2]
    a3fc:	e200101f 	and	r1, r0, #31
    a400:	e35000e0 	cmp	r0, #224	@ 0xe0
    a404:	e202203f 	and	r2, r2, #63	@ 0x3f
    a408:	3a0000fd 	bcc	a804 <_RNvNtNtCscA5RF7Ru5It_7pi_side8language5parse11parse_value.llvm.15442064674751795473+0x12b4>
    a40c:	e5d93003 	ldrb	r3, [r9, #3]
    a410:	e35000f0 	cmp	r0, #240	@ 0xf0
    a414:	e203303f 	and	r3, r3, #63	@ 0x3f
    a418:	e1832302 	orr	r2, r3, r2, lsl #6
    a41c:	3a0001d4 	bcc	ab74 <_RNvNtNtCscA5RF7Ru5It_7pi_side8language5parse11parse_value.llvm.15442064674751795473+0x1624>
    a420:	e5d90004 	ldrb	r0, [r9, #4]
    a424:	e2011007 	and	r1, r1, #7
    a428:	e200003f 	and	r0, r0, #63	@ 0x3f
    a42c:	e1800302 	orr	r0, r0, r2, lsl #6
    a430:	e1800901 	orr	r0, r0, r1, lsl #18
    a434:	ea0001cf 	b	ab78 <_RNvNtNtCscA5RF7Ru5It_7pi_side8language5parse11parse_value.llvm.15442064674751795473+0x1628>
    a438:	e59d9020 	ldr	r9, [sp, #32]
    a43c:	e1a0c009 	mov	ip, r9
    a440:	e88e0102 	stm	lr, {r1, r8}
    a444:	e3a05001 	mov	r5, #1
    a448:	e3a000ff 	mov	r0, #255	@ 0xff
    a44c:	e3a0101d 	mov	r1, #29
    a450:	e3530000 	cmp	r3, #0
    a454:	e58a500c 	str	r5, [sl, #12]
    a458:	e58ac010 	str	ip, [sl, #16]
    a45c:	e5ca0008 	strb	r0, [sl, #8]
    a460:	0a000018 	beq	a4c8 <_RNvNtNtCscA5RF7Ru5It_7pi_side8language5parse11parse_value.llvm.15442064674751795473+0xf78>
    a464:	e1d920d0 	ldrsb	r2, [r9]
    a468:	e3720001 	cmn	r2, #1
    a46c:	e6ef0072 	uxtb	r0, r2
    a470:	da000026 	ble	a510 <_RNvNtNtCscA5RF7Ru5It_7pi_side8language5parse11parse_value.llvm.15442064674751795473+0xfc0>
    a474:	e3500027 	cmp	r0, #39	@ 0x27
    a478:	1a0000bf 	bne	a77c <_RNvNtNtCscA5RF7Ru5It_7pi_side8language5parse11parse_value.llvm.15442064674751795473+0x122c>
    a47c:	e3530001 	cmp	r3, #1
    a480:	0a000002 	beq	a490 <_RNvNtNtCscA5RF7Ru5It_7pi_side8language5parse11parse_value.llvm.15442064674751795473+0xf40>
    a484:	e1d900d1 	ldrsb	r0, [r9, #1]
    a488:	e3700041 	cmn	r0, #65	@ 0x41
    a48c:	da0006ee 	ble	c04c <_RNvNtNtCscA5RF7Ru5It_7pi_side8language5parse11parse_value.llvm.15442064674751795473+0x2afc>
    a490:	e2891001 	add	r1, r9, #1
    a494:	e2432001 	sub	r2, r3, #1
    a498:	e28d0048 	add	r0, sp, #72	@ 0x48
    a49c:	ebfffc2b 	bl	9550 <_RNvNtNtCscA5RF7Ru5It_7pi_side8language5parse11parse_value.llvm.15442064674751795473>
    a4a0:	e5dd0050 	ldrb	r0, [sp, #80]	@ 0x50
    a4a4:	e35000ff 	cmp	r0, #255	@ 0xff
    a4a8:	1a000028 	bne	a550 <_RNvNtNtCscA5RF7Ru5It_7pi_side8language5parse11parse_value.llvm.15442064674751795473+0x1000>
    a4ac:	e59d5054 	ldr	r5, [sp, #84]	@ 0x54
    a4b0:	e59d0058 	ldr	r0, [sp, #88]	@ 0x58
    a4b4:	e59d205c 	ldr	r2, [sp, #92]	@ 0x5c
    a4b8:	e59d1060 	ldr	r1, [sp, #96]	@ 0x60
    a4bc:	e59de01c 	ldr	lr, [sp, #28]
    a4c0:	e59d3024 	ldr	r3, [sp, #36]	@ 0x24
    a4c4:	ea0000ae 	b	a784 <_RNvNtNtCscA5RF7Ru5It_7pi_side8language5parse11parse_value.llvm.15442064674751795473+0x1234>
    a4c8:	e3a02000 	mov	r2, #0
    a4cc:	ea0000ab 	b	a780 <_RNvNtNtCscA5RF7Ru5It_7pi_side8language5parse11parse_value.llvm.15442064674751795473+0x1230>
    a4d0:	e5d92001 	ldrb	r2, [r9, #1]
    a4d4:	e200101f 	and	r1, r0, #31
    a4d8:	e35000e0 	cmp	r0, #224	@ 0xe0
    a4dc:	e202203f 	and	r2, r2, #63	@ 0x3f
    a4e0:	3a000056 	bcc	a640 <_RNvNtNtCscA5RF7Ru5It_7pi_side8language5parse11parse_value.llvm.15442064674751795473+0x10f0>
    a4e4:	e5d93002 	ldrb	r3, [r9, #2]
    a4e8:	e35000f0 	cmp	r0, #240	@ 0xf0
    a4ec:	e203303f 	and	r3, r3, #63	@ 0x3f
    a4f0:	e1832302 	orr	r2, r3, r2, lsl #6
    a4f4:	3a000095 	bcc	a750 <_RNvNtNtCscA5RF7Ru5It_7pi_side8language5parse11parse_value.llvm.15442064674751795473+0x1200>
    a4f8:	e5d90003 	ldrb	r0, [r9, #3]
    a4fc:	e2011007 	and	r1, r1, #7
    a500:	e200003f 	and	r0, r0, #63	@ 0x3f
    a504:	e1800302 	orr	r0, r0, r2, lsl #6
    a508:	e1800901 	orr	r0, r0, r1, lsl #18
    a50c:	ea000090 	b	a754 <_RNvNtNtCscA5RF7Ru5It_7pi_side8language5parse11parse_value.llvm.15442064674751795473+0x1204>
    a510:	e5d93001 	ldrb	r3, [r9, #1]
    a514:	e200201f 	and	r2, r0, #31
    a518:	e35000e0 	cmp	r0, #224	@ 0xe0
    a51c:	e203303f 	and	r3, r3, #63	@ 0x3f
    a520:	3a00004c 	bcc	a658 <_RNvNtNtCscA5RF7Ru5It_7pi_side8language5parse11parse_value.llvm.15442064674751795473+0x1108>
    a524:	e5d97002 	ldrb	r7, [r9, #2]
    a528:	e35000f0 	cmp	r0, #240	@ 0xf0
    a52c:	e207703f 	and	r7, r7, #63	@ 0x3f
    a530:	e1873303 	orr	r3, r7, r3, lsl #6
    a534:	3a00008c 	bcc	a76c <_RNvNtNtCscA5RF7Ru5It_7pi_side8language5parse11parse_value.llvm.15442064674751795473+0x121c>
    a538:	e5d90003 	ldrb	r0, [r9, #3]
    a53c:	e2022007 	and	r2, r2, #7
    a540:	e200003f 	and	r0, r0, #63	@ 0x3f
    a544:	e1800303 	orr	r0, r0, r3, lsl #6
    a548:	e1800902 	orr	r0, r0, r2, lsl #18
    a54c:	ea000087 	b	a770 <_RNvNtNtCscA5RF7Ru5It_7pi_side8language5parse11parse_value.llvm.15442064674751795473+0x1220>
    a550:	e5dd2052 	ldrb	r2, [sp, #82]	@ 0x52
    a554:	e28dc0f0 	add	ip, sp, #240	@ 0xf0
    a558:	e59d9048 	ldr	r9, [sp, #72]	@ 0x48
    a55c:	e3500005 	cmp	r0, #5
    a560:	e59db04c 	ldr	fp, [sp, #76]	@ 0x4c
    a564:	e5dd1051 	ldrb	r1, [sp, #81]	@ 0x51
    a568:	e5cd20ea 	strb	r2, [sp, #234]	@ 0xea
    a56c:	e59d2058 	ldr	r2, [sp, #88]	@ 0x58
    a570:	e5dd3053 	ldrb	r3, [sp, #83]	@ 0x53
    a574:	e59d6064 	ldr	r6, [sp, #100]	@ 0x64
    a578:	e59d5068 	ldr	r5, [sp, #104]	@ 0x68
    a57c:	e59d406c 	ldr	r4, [sp, #108]	@ 0x6c
    a580:	e59d7070 	ldr	r7, [sp, #112]	@ 0x70
    a584:	e5cd10e9 	strb	r1, [sp, #233]	@ 0xe9
    a588:	e59d1054 	ldr	r1, [sp, #84]	@ 0x54
    a58c:	e5cd30eb 	strb	r3, [sp, #235]	@ 0xeb
    a590:	e58d60fc 	str	r6, [sp, #252]	@ 0xfc
    a594:	e59d305c 	ldr	r3, [sp, #92]	@ 0x5c
    a598:	e59d6060 	ldr	r6, [sp, #96]	@ 0x60
    a59c:	e58d5100 	str	r5, [sp, #256]	@ 0x100
    a5a0:	e58d4104 	str	r4, [sp, #260]	@ 0x104
    a5a4:	e58d7108 	str	r7, [sp, #264]	@ 0x108
    a5a8:	e88c004c 	stm	ip, {r2, r3, r6}
    a5ac:	e5cd00e8 	strb	r0, [sp, #232]	@ 0xe8
    a5b0:	e58d10ec 	str	r1, [sp, #236]	@ 0xec
    a5b4:	1a000029 	bne	a660 <_RNvNtNtCscA5RF7Ru5It_7pi_side8language5parse11parse_value.llvm.15442064674751795473+0x1110>
    a5b8:	eb004888 	bl	1c7e0 <_RNvCs7urVXOUFJf8_7___rustc35___rust_no_alloc_shim_is_unstable_v2>
    a5bc:	e59f0468 	ldr	r0, [pc, #1128]	@ aa2c <_RNvNtNtCscA5RF7Ru5It_7pi_side8language5parse11parse_value.llvm.15442064674751795473+0x14dc>
    a5c0:	e3a01004 	mov	r1, #4
    a5c4:	e3a0202c 	mov	r2, #44	@ 0x2c
    a5c8:	eb0048b0 	bl	1c890 <_RNvXs_NtCs902aIDM3RvW_14embedded_alloc4llffNtB4_4HeapNtNtNtCs5HYdw2IoCB0_4core5alloc6global11GlobalAlloc5alloc>
    a5cc:	e3500000 	cmp	r0, #0
    a5d0:	0a000649 	beq	befc <_RNvNtNtCscA5RF7Ru5It_7pi_side8language5parse11parse_value.llvm.15442064674751795473+0x29ac>
    a5d4:	e1a05000 	mov	r5, r0
    a5d8:	e3a00003 	mov	r0, #3
    a5dc:	e3a04001 	mov	r4, #1
    a5e0:	e3800c1d 	orr	r0, r0, #7424	@ 0x1d00
    a5e4:	e58d9024 	str	r9, [sp, #36]	@ 0x24
    a5e8:	e1a0800a 	mov	r8, sl
    a5ec:	e1c500b8 	strh	r0, [r5, #8]
    a5f0:	e5854000 	str	r4, [r5]
    a5f4:	e5854004 	str	r4, [r5, #4]
    a5f8:	eb004878 	bl	1c7e0 <_RNvCs7urVXOUFJf8_7___rustc35___rust_no_alloc_shim_is_unstable_v2>
    a5fc:	e59f0428 	ldr	r0, [pc, #1064]	@ aa2c <_RNvNtNtCscA5RF7Ru5It_7pi_side8language5parse11parse_value.llvm.15442064674751795473+0x14dc>
    a600:	e3a01004 	mov	r1, #4
    a604:	e3a0202c 	mov	r2, #44	@ 0x2c
    a608:	eb0048a0 	bl	1c890 <_RNvXs_NtCs902aIDM3RvW_14embedded_alloc4llffNtB4_4HeapNtNtNtCs5HYdw2IoCB0_4core5alloc6global11GlobalAlloc5alloc>
    a60c:	e3500000 	cmp	r0, #0
    a610:	0a000639 	beq	befc <_RNvNtNtCscA5RF7Ru5It_7pi_side8language5parse11parse_value.llvm.15442064674751795473+0x29ac>
    a614:	e28d20e8 	add	r2, sp, #232	@ 0xe8
    a618:	e5804000 	str	r4, [r0]
    a61c:	e5804004 	str	r4, [r0, #4]
    a620:	e280c008 	add	ip, r0, #8
    a624:	e8b200d8 	ldm	r2!, {r3, r4, r6, r7}
    a628:	e1a0900b 	mov	r9, fp
    a62c:	e3a0a005 	mov	sl, #5
    a630:	e8ac00d8 	stmia	ip!, {r3, r4, r6, r7}
    a634:	e89200da 	ldm	r2, {r1, r3, r4, r6, r7}
    a638:	e88c00da 	stm	ip, {r1, r3, r4, r6, r7}
    a63c:	ea00002d 	b	a6f8 <_RNvNtNtCscA5RF7Ru5It_7pi_side8language5parse11parse_value.llvm.15442064674751795473+0x11a8>
    a640:	e1820301 	orr	r0, r2, r1, lsl #6
    a644:	e1a0c009 	mov	ip, r9
    a648:	e1a01003 	mov	r1, r3
    a64c:	e3500075 	cmp	r0, #117	@ 0x75
    a650:	1affff7a 	bne	a440 <_RNvNtNtCscA5RF7Ru5It_7pi_side8language5parse11parse_value.llvm.15442064674751795473+0xef0>
    a654:	eaffff5b 	b	a3c8 <_RNvNtNtCscA5RF7Ru5It_7pi_side8language5parse11parse_value.llvm.15442064674751795473+0xe78>
    a658:	e1830302 	orr	r0, r3, r2, lsl #6
    a65c:	ea000043 	b	a770 <_RNvNtNtCscA5RF7Ru5It_7pi_side8language5parse11parse_value.llvm.15442064674751795473+0x1220>
    a660:	e3a00003 	mov	r0, #3
    a664:	e28d40c4 	add	r4, sp, #196	@ 0xc4
    a668:	e3800c1d 	orr	r0, r0, #7424	@ 0x1d00
    a66c:	e1cd0ab0 	strh	r0, [sp, #160]	@ 0xa0
    a670:	e3a00000 	mov	r0, #0
    a674:	e28d10e8 	add	r1, sp, #232	@ 0xe8
    a678:	e28d2048 	add	r2, sp, #72	@ 0x48
    a67c:	e5cd0048 	strb	r0, [sp, #72]	@ 0x48
    a680:	e1a00004 	mov	r0, r4
    a684:	e1a0800a 	mov	r8, sl
    a688:	eb00450d 	bl	1bac4 <_RNvMNtNtCscA5RF7Ru5It_7pi_side8language3astNtB2_5Value4cons>
    a68c:	e28d0078 	add	r0, sp, #120	@ 0x78
    a690:	e28d10a0 	add	r1, sp, #160	@ 0xa0
    a694:	e1a02004 	mov	r2, r4
    a698:	eb004509 	bl	1bac4 <_RNvMNtNtCscA5RF7Ru5It_7pi_side8language3astNtB2_5Value4cons>
    a69c:	e59d008c 	ldr	r0, [sp, #140]	@ 0x8c
    a6a0:	e5dda078 	ldrb	sl, [sp, #120]	@ 0x78
    a6a4:	e58d0110 	str	r0, [sp, #272]	@ 0x110
    a6a8:	e5dde07a 	ldrb	lr, [sp, #122]	@ 0x7a
    a6ac:	e35a00ff 	cmp	sl, #255	@ 0xff
    a6b0:	e59d1088 	ldr	r1, [sp, #136]	@ 0x88
    a6b4:	e59d2084 	ldr	r2, [sp, #132]	@ 0x84
    a6b8:	e59d507c 	ldr	r5, [sp, #124]	@ 0x7c
    a6bc:	e59d0080 	ldr	r0, [sp, #128]	@ 0x80
    a6c0:	e5ddc079 	ldrb	ip, [sp, #121]	@ 0x79
    a6c4:	e59d7090 	ldr	r7, [sp, #144]	@ 0x90
    a6c8:	e59d6094 	ldr	r6, [sp, #148]	@ 0x94
    a6cc:	e5dd407b 	ldrb	r4, [sp, #123]	@ 0x7b
    a6d0:	e59d3098 	ldr	r3, [sp, #152]	@ 0x98
    a6d4:	e58d311c 	str	r3, [sp, #284]	@ 0x11c
    a6d8:	e18c340e 	orr	r3, ip, lr, lsl #8
    a6dc:	e58d7114 	str	r7, [sp, #276]	@ 0x114
    a6e0:	e58d6118 	str	r6, [sp, #280]	@ 0x118
    a6e4:	e5cd402a 	strb	r4, [sp, #42]	@ 0x2a
    a6e8:	e1cd32b8 	strh	r3, [sp, #40]	@ 0x28
    a6ec:	0a000046 	beq	a80c <_RNvNtNtCscA5RF7Ru5It_7pi_side8language5parse11parse_value.llvm.15442064674751795473+0x12bc>
    a6f0:	e58d9024 	str	r9, [sp, #36]	@ 0x24
    a6f4:	e1a0900b 	mov	r9, fp
    a6f8:	e28def45 	add	lr, sp, #276	@ 0x114
    a6fc:	e5dd3028 	ldrb	r3, [sp, #40]	@ 0x28
    a700:	e5c83009 	strb	r3, [r8, #9]
    a704:	e2883020 	add	r3, r8, #32
    a708:	e89e4880 	ldm	lr, {r7, fp, lr}
    a70c:	e5880010 	str	r0, [r8, #16]
    a710:	e8834880 	stm	r3, {r7, fp, lr}
    a714:	e59d301c 	ldr	r3, [sp, #28]
    a718:	e59d0024 	ldr	r0, [sp, #36]	@ 0x24
    a71c:	e59dc110 	ldr	ip, [sp, #272]	@ 0x110
    a720:	e5dd4029 	ldrb	r4, [sp, #41]	@ 0x29
    a724:	e5dd602a 	ldrb	r6, [sp, #42]	@ 0x2a
    a728:	e5c8600b 	strb	r6, [r8, #11]
    a72c:	e5c8400a 	strb	r4, [r8, #10]
    a730:	e588c01c 	str	ip, [r8, #28]
    a734:	e5832000 	str	r2, [r3]
    a738:	e5831004 	str	r1, [r3, #4]
    a73c:	e588500c 	str	r5, [r8, #12]
    a740:	e5c8a008 	strb	sl, [r8, #8]
    a744:	e8880201 	stm	r8, {r0, r9}
    a748:	e28ddf49 	add	sp, sp, #292	@ 0x124
    a74c:	e8bd8ff0 	pop	{r4, r5, r6, r7, r8, r9, sl, fp, pc}
    a750:	e1820601 	orr	r0, r2, r1, lsl #12
    a754:	e59d3024 	ldr	r3, [sp, #36]	@ 0x24
    a758:	e1a0c009 	mov	ip, r9
    a75c:	e1a01003 	mov	r1, r3
    a760:	e3500075 	cmp	r0, #117	@ 0x75
    a764:	0affff17 	beq	a3c8 <_RNvNtNtCscA5RF7Ru5It_7pi_side8language5parse11parse_value.llvm.15442064674751795473+0xe78>
    a768:	eaffff34 	b	a440 <_RNvNtNtCscA5RF7Ru5It_7pi_side8language5parse11parse_value.llvm.15442064674751795473+0xef0>
    a76c:	e1830602 	orr	r0, r3, r2, lsl #12
    a770:	e59d3024 	ldr	r3, [sp, #36]	@ 0x24
    a774:	e3500027 	cmp	r0, #39	@ 0x27
    a778:	0affff3f 	beq	a47c <_RNvNtNtCscA5RF7Ru5It_7pi_side8language5parse11parse_value.llvm.15442064674751795473+0xf2c>
    a77c:	e1a02003 	mov	r2, r3
    a780:	e1a00009 	mov	r0, r9
    a784:	e58a0010 	str	r0, [sl, #16]
    a788:	e3a000ff 	mov	r0, #255	@ 0xff
    a78c:	e3550001 	cmp	r5, #1
    a790:	e58e2000 	str	r2, [lr]
    a794:	e58e1004 	str	r1, [lr, #4]
    a798:	e58a500c 	str	r5, [sl, #12]
    a79c:	e5ca0008 	strb	r0, [sl, #8]
    a7a0:	1afffb7b 	bne	9594 <_RNvNtNtCscA5RF7Ru5It_7pi_side8language5parse11parse_value.llvm.15442064674751795473+0x44>
    a7a4:	e3530000 	cmp	r3, #0
    a7a8:	0a000055 	beq	a904 <_RNvNtNtCscA5RF7Ru5It_7pi_side8language5parse11parse_value.llvm.15442064674751795473+0x13b4>
    a7ac:	e1d910d0 	ldrsb	r1, [r9]
    a7b0:	e3710001 	cmn	r1, #1
    a7b4:	e6ef0071 	uxtb	r0, r1
    a7b8:	ca00001a 	bgt	a828 <_RNvNtNtCscA5RF7Ru5It_7pi_side8language5parse11parse_value.llvm.15442064674751795473+0x12d8>
    a7bc:	e5d92001 	ldrb	r2, [r9, #1]
    a7c0:	e200101f 	and	r1, r0, #31
    a7c4:	e35000e0 	cmp	r0, #224	@ 0xe0
    a7c8:	e202203f 	and	r2, r2, #63	@ 0x3f
    a7cc:	3a00000a 	bcc	a7fc <_RNvNtNtCscA5RF7Ru5It_7pi_side8language5parse11parse_value.llvm.15442064674751795473+0x12ac>
    a7d0:	e5d93002 	ldrb	r3, [r9, #2]
    a7d4:	e35000f0 	cmp	r0, #240	@ 0xf0
    a7d8:	e203303f 	and	r3, r3, #63	@ 0x3f
    a7dc:	e1832302 	orr	r2, r3, r2, lsl #6
    a7e0:	3a00000e 	bcc	a820 <_RNvNtNtCscA5RF7Ru5It_7pi_side8language5parse11parse_value.llvm.15442064674751795473+0x12d0>
    a7e4:	e5d90003 	ldrb	r0, [r9, #3]
    a7e8:	e2011007 	and	r1, r1, #7
    a7ec:	e200003f 	and	r0, r0, #63	@ 0x3f
    a7f0:	e1800302 	orr	r0, r0, r2, lsl #6
    a7f4:	e1800901 	orr	r0, r0, r1, lsl #18
    a7f8:	ea000009 	b	a824 <_RNvNtNtCscA5RF7Ru5It_7pi_side8language5parse11parse_value.llvm.15442064674751795473+0x12d4>
    a7fc:	e1820301 	orr	r0, r2, r1, lsl #6
    a800:	ea000008 	b	a828 <_RNvNtNtCscA5RF7Ru5It_7pi_side8language5parse11parse_value.llvm.15442064674751795473+0x12d8>
    a804:	e1820301 	orr	r0, r2, r1, lsl #6
    a808:	ea0000db 	b	ab7c <_RNvNtNtCscA5RF7Ru5It_7pi_side8language5parse11parse_value.llvm.15442064674751795473+0x162c>
    a80c:	e59de01c 	ldr	lr, [sp, #28]
    a810:	e1a0a008 	mov	sl, r8
    a814:	e59d3024 	ldr	r3, [sp, #36]	@ 0x24
    a818:	e59d9020 	ldr	r9, [sp, #32]
    a81c:	eaffffd8 	b	a784 <_RNvNtNtCscA5RF7Ru5It_7pi_side8language5parse11parse_value.llvm.15442064674751795473+0x1234>
    a820:	e1820601 	orr	r0, r2, r1, lsl #12
    a824:	e59d3024 	ldr	r3, [sp, #36]	@ 0x24
    a828:	e3500028 	cmp	r0, #40	@ 0x28
    a82c:	1a000034 	bne	a904 <_RNvNtNtCscA5RF7Ru5It_7pi_side8language5parse11parse_value.llvm.15442064674751795473+0x13b4>
    a830:	e3530001 	cmp	r3, #1
    a834:	0a000002 	beq	a844 <_RNvNtNtCscA5RF7Ru5It_7pi_side8language5parse11parse_value.llvm.15442064674751795473+0x12f4>
    a838:	e1d900d1 	ldrsb	r0, [r9, #1]
    a83c:	e3700041 	cmn	r0, #65	@ 0x41
    a840:	da000601 	ble	c04c <_RNvNtNtCscA5RF7Ru5It_7pi_side8language5parse11parse_value.llvm.15442064674751795473+0x2afc>
    a844:	e3a01004 	mov	r1, #4
    a848:	e28d4048 	add	r4, sp, #72	@ 0x48
    a84c:	e3a00000 	mov	r0, #0
    a850:	e58d1040 	str	r1, [sp, #64]	@ 0x40
    a854:	e2891001 	add	r1, r9, #1
    a858:	e2432001 	sub	r2, r3, #1
    a85c:	e58d0044 	str	r0, [sp, #68]	@ 0x44
    a860:	e58d003c 	str	r0, [sp, #60]	@ 0x3c
    a864:	e1a00004 	mov	r0, r4
    a868:	eb00064e 	bl	c1a8 <_RNvNtNtCscA5RF7Ru5It_7pi_side8language5parse2ws>
    a86c:	e59d7048 	ldr	r7, [sp, #72]	@ 0x48
    a870:	e3770001 	cmn	r7, #1
    a874:	0a000064 	beq	aa0c <_RNvNtNtCscA5RF7Ru5It_7pi_side8language5parse11parse_value.llvm.15442064674751795473+0x14bc>
    a878:	e59d0050 	ldr	r0, [sp, #80]	@ 0x50
    a87c:	e3a050ff 	mov	r5, #255	@ 0xff
    a880:	e58d0014 	str	r0, [sp, #20]
    a884:	e59d0054 	ldr	r0, [sp, #84]	@ 0x54
    a888:	e59db04c 	ldr	fp, [sp, #76]	@ 0x4c
    a88c:	e1a08000 	mov	r8, r0
    a890:	e1a00420 	lsr	r0, r0, #8
    a894:	e58d0010 	str	r0, [sp, #16]
    a898:	e59d6044 	ldr	r6, [sp, #68]	@ 0x44
    a89c:	e3560000 	cmp	r6, #0
    a8a0:	0a000005 	beq	a8bc <_RNvNtNtCscA5RF7Ru5It_7pi_side8language5parse11parse_value.llvm.15442064674751795473+0x136c>
    a8a4:	e59d4040 	ldr	r4, [sp, #64]	@ 0x40
    a8a8:	e1a00004 	mov	r0, r4
    a8ac:	eb0036c1 	bl	183b8 <_RINvNtCs5HYdw2IoCB0_4core3ptr13drop_in_placeNtNtNtCscA5RF7Ru5It_7pi_side8language3ast5ValueEBM_.llvm.1606349893970809530>
    a8b0:	e2844024 	add	r4, r4, #36	@ 0x24
    a8b4:	e2566001 	subs	r6, r6, #1
    a8b8:	1afffffa 	bne	a8a8 <_RNvNtNtCscA5RF7Ru5It_7pi_side8language5parse11parse_value.llvm.15442064674751795473+0x1358>
    a8bc:	e59d203c 	ldr	r2, [sp, #60]	@ 0x3c
    a8c0:	e3520000 	cmp	r2, #0
    a8c4:	0a000005 	beq	a8e0 <_RNvNtNtCscA5RF7Ru5It_7pi_side8language5parse11parse_value.llvm.15442064674751795473+0x1390>
    a8c8:	e0822182 	add	r2, r2, r2, lsl #3
    a8cc:	e59d1040 	ldr	r1, [sp, #64]	@ 0x40
    a8d0:	e59f0154 	ldr	r0, [pc, #340]	@ aa2c <_RNvNtNtCscA5RF7Ru5It_7pi_side8language5parse11parse_value.llvm.15442064674751795473+0x14dc>
    a8d4:	e1a03102 	lsl	r3, r2, #2
    a8d8:	e3a02004 	mov	r2, #4
    a8dc:	eb004805 	bl	1c8f8 <_RNvXs_NtCs902aIDM3RvW_14embedded_alloc4llffNtB4_4HeapNtNtNtCs5HYdw2IoCB0_4core5alloc6global11GlobalAlloc7dealloc>
    a8e0:	e59d3024 	ldr	r3, [sp, #36]	@ 0x24
    a8e4:	e35500ff 	cmp	r5, #255	@ 0xff
    a8e8:	1a00002b 	bne	a99c <_RNvNtNtCscA5RF7Ru5It_7pi_side8language5parse11parse_value.llvm.15442064674751795473+0x144c>
    a8ec:	e59d1010 	ldr	r1, [sp, #16]
    a8f0:	e6ef0078 	uxtb	r0, r8
    a8f4:	e59de01c 	ldr	lr, [sp, #28]
    a8f8:	e1800401 	orr	r0, r0, r1, lsl #8
    a8fc:	e59d1014 	ldr	r1, [sp, #20]
    a900:	ea000003 	b	a914 <_RNvNtNtCscA5RF7Ru5It_7pi_side8language5parse11parse_value.llvm.15442064674751795473+0x13c4>
    a904:	e3a07001 	mov	r7, #1
    a908:	e3a0001d 	mov	r0, #29
    a90c:	e1a01003 	mov	r1, r3
    a910:	e1a0b009 	mov	fp, r9
    a914:	e58e0004 	str	r0, [lr, #4]
    a918:	e3a000ff 	mov	r0, #255	@ 0xff
    a91c:	e3570001 	cmp	r7, #1
    a920:	e58e1000 	str	r1, [lr]
    a924:	e58a700c 	str	r7, [sl, #12]
    a928:	e58ab010 	str	fp, [sl, #16]
    a92c:	e5ca0008 	strb	r0, [sl, #8]
    a930:	1afffb17 	bne	9594 <_RNvNtNtCscA5RF7Ru5It_7pi_side8language5parse11parse_value.llvm.15442064674751795473+0x44>
    a934:	e3a0701d 	mov	r7, #29
    a938:	e3530000 	cmp	r3, #0
    a93c:	0a000013 	beq	a990 <_RNvNtNtCscA5RF7Ru5It_7pi_side8language5parse11parse_value.llvm.15442064674751795473+0x1440>
    a940:	e1d910d0 	ldrsb	r1, [r9]
    a944:	e3710001 	cmn	r1, #1
    a948:	e6ef0071 	uxtb	r0, r1
    a94c:	ca0001e0 	bgt	b0d4 <_RNvNtNtCscA5RF7Ru5It_7pi_side8language5parse11parse_value.llvm.15442064674751795473+0x1b84>
    a950:	e5d92001 	ldrb	r2, [r9, #1]
    a954:	e200101f 	and	r1, r0, #31
    a958:	e35000e0 	cmp	r0, #224	@ 0xe0
    a95c:	e202203f 	and	r2, r2, #63	@ 0x3f
    a960:	3a000081 	bcc	ab6c <_RNvNtNtCscA5RF7Ru5It_7pi_side8language5parse11parse_value.llvm.15442064674751795473+0x161c>
    a964:	e5d93002 	ldrb	r3, [r9, #2]
    a968:	e35000f0 	cmp	r0, #240	@ 0xf0
    a96c:	e203303f 	and	r3, r3, #63	@ 0x3f
    a970:	e1832302 	orr	r2, r3, r2, lsl #6
    a974:	3a0001d4 	bcc	b0cc <_RNvNtNtCscA5RF7Ru5It_7pi_side8language5parse11parse_value.llvm.15442064674751795473+0x1b7c>
    a978:	e5d90003 	ldrb	r0, [r9, #3]
    a97c:	e2011007 	and	r1, r1, #7
    a980:	e200003f 	and	r0, r0, #63	@ 0x3f
    a984:	e1800302 	orr	r0, r0, r2, lsl #6
    a988:	e1800901 	orr	r0, r0, r1, lsl #18
    a98c:	ea0001cf 	b	b0d0 <_RNvNtNtCscA5RF7Ru5It_7pi_side8language5parse11parse_value.llvm.15442064674751795473+0x1b80>
    a990:	e3a00000 	mov	r0, #0
    a994:	e1a06009 	mov	r6, r9
    a998:	ea00033c 	b	b690 <_RNvNtNtCscA5RF7Ru5It_7pi_side8language5parse11parse_value.llvm.15442064674751795473+0x2140>
    a99c:	e59de01c 	ldr	lr, [sp, #28]
    a9a0:	e59d9010 	ldr	r9, [sp, #16]
    a9a4:	e28d302c 	add	r3, sp, #44	@ 0x2c
    a9a8:	e5dd003a 	ldrb	r0, [sp, #58]	@ 0x3a
    a9ac:	e5ca000b 	strb	r0, [sl, #11]
    a9b0:	e28a0020 	add	r0, sl, #32
    a9b4:	e893000e 	ldm	r3, {r1, r2, r3}
    a9b8:	e59dc028 	ldr	ip, [sp, #40]	@ 0x28
    a9bc:	e880000e 	stm	r0, {r1, r2, r3}
    a9c0:	e6ef0078 	uxtb	r0, r8
    a9c4:	e1800409 	orr	r0, r0, r9, lsl #8
    a9c8:	e58e0004 	str	r0, [lr, #4]
    a9cc:	e59d0008 	ldr	r0, [sp, #8]
    a9d0:	e5dd6038 	ldrb	r6, [sp, #56]	@ 0x38
    a9d4:	e5dd4039 	ldrb	r4, [sp, #57]	@ 0x39
    a9d8:	e59d1014 	ldr	r1, [sp, #20]
    a9dc:	e58a0000 	str	r0, [sl]
    a9e0:	e59d000c 	ldr	r0, [sp, #12]
    a9e4:	e5ca400a 	strb	r4, [sl, #10]
    a9e8:	e5ca6009 	strb	r6, [sl, #9]
    a9ec:	e58ac01c 	str	ip, [sl, #28]
    a9f0:	e58e1000 	str	r1, [lr]
    a9f4:	e58a700c 	str	r7, [sl, #12]
    a9f8:	e58ab010 	str	fp, [sl, #16]
    a9fc:	e5ca5008 	strb	r5, [sl, #8]
    aa00:	e58a0004 	str	r0, [sl, #4]
    aa04:	e28ddf49 	add	sp, sp, #292	@ 0x124
    aa08:	e8bd8ff0 	pop	{r4, r5, r6, r7, r8, r9, sl, fp, pc}
    aa0c:	e2840014 	add	r0, r4, #20
    aa10:	e58d0010 	str	r0, [sp, #16]
    aa14:	e2840009 	add	r0, r4, #9
    aa18:	e284b01c 	add	fp, r4, #28
    aa1c:	e28d4048 	add	r4, sp, #72	@ 0x48
    aa20:	e58d000c 	str	r0, [sp, #12]
    aa24:	e58da018 	str	sl, [sp, #24]
    aa28:	ea00001e 	b	aaa8 <_RNvNtNtCscA5RF7Ru5It_7pi_side8language5parse11parse_value.llvm.15442064674751795473+0x1558>
    aa2c:	03c50898 	.word	0x03c50898
    aa30:	e59d3040 	ldr	r3, [sp, #64]	@ 0x40
    aa34:	e08a718a 	add	r7, sl, sl, lsl #3
    aa38:	e5dd0120 	ldrb	r0, [sp, #288]	@ 0x120
    aa3c:	e5dd5121 	ldrb	r5, [sp, #289]	@ 0x121
    aa40:	e5ddc122 	ldrb	ip, [sp, #290]	@ 0x122
    aa44:	e7e36107 	strb	r6, [r3, r7, lsl #2]!
    aa48:	e59d411c 	ldr	r4, [sp, #284]	@ 0x11c
    aa4c:	e5c30001 	strb	r0, [r3, #1]
    aa50:	e59d0110 	ldr	r0, [sp, #272]	@ 0x110
    aa54:	e5834020 	str	r4, [r3, #32]
    aa58:	e28d4048 	add	r4, sp, #72	@ 0x48
    aa5c:	e59d7114 	ldr	r7, [sp, #276]	@ 0x114
    aa60:	e59d6118 	ldr	r6, [sp, #280]	@ 0x118
    aa64:	e5c35002 	strb	r5, [r3, #2]
    aa68:	e59d5014 	ldr	r5, [sp, #20]
    aa6c:	e5830014 	str	r0, [r3, #20]
    aa70:	e28a0001 	add	r0, sl, #1
    aa74:	e5c3c003 	strb	ip, [r3, #3]
    aa78:	e9834300 	stmib	r3, {r8, r9, lr}
    aa7c:	e5835010 	str	r5, [r3, #16]
    aa80:	e5837018 	str	r7, [r3, #24]
    aa84:	e583601c 	str	r6, [r3, #28]
    aa88:	e58d0044 	str	r0, [sp, #68]	@ 0x44
    aa8c:	e1a00004 	mov	r0, r4
    aa90:	eb0005c4 	bl	c1a8 <_RNvNtNtCscA5RF7Ru5It_7pi_side8language5parse2ws>
    aa94:	e59d7048 	ldr	r7, [sp, #72]	@ 0x48
    aa98:	e59da018 	ldr	sl, [sp, #24]
    aa9c:	e59d9020 	ldr	r9, [sp, #32]
    aaa0:	e3770001 	cmn	r7, #1
    aaa4:	1affff73 	bne	a878 <_RNvNtNtCscA5RF7Ru5It_7pi_side8language5parse11parse_value.llvm.15442064674751795473+0x1328>
    aaa8:	e59d3050 	ldr	r3, [sp, #80]	@ 0x50
    aaac:	e3a050ff 	mov	r5, #255	@ 0xff
    aab0:	e3530000 	cmp	r3, #0
    aab4:	0a0000f1 	beq	ae80 <_RNvNtNtCscA5RF7Ru5It_7pi_side8language5parse11parse_value.llvm.15442064674751795473+0x1930>
    aab8:	e59d104c 	ldr	r1, [sp, #76]	@ 0x4c
    aabc:	e5d10000 	ldrb	r0, [r1]
    aac0:	e3500029 	cmp	r0, #41	@ 0x29
    aac4:	0a0000f6 	beq	aea4 <_RNvNtNtCscA5RF7Ru5It_7pi_side8language5parse11parse_value.llvm.15442064674751795473+0x1954>
    aac8:	e1a00004 	mov	r0, r4
    aacc:	e1a02003 	mov	r2, r3
    aad0:	ebfffa9e 	bl	9550 <_RNvNtNtCscA5RF7Ru5It_7pi_side8language5parse11parse_value.llvm.15442064674751795473>
    aad4:	e5dd6050 	ldrb	r6, [sp, #80]	@ 0x50
    aad8:	e35600ff 	cmp	r6, #255	@ 0xff
    aadc:	0a000173 	beq	b0b0 <_RNvNtNtCscA5RF7Ru5It_7pi_side8language5parse11parse_value.llvm.15442064674751795473+0x1b60>
    aae0:	e59d200c 	ldr	r2, [sp, #12]
    aae4:	e59b300c 	ldr	r3, [fp, #12]
    aae8:	e89b1003 	ldm	fp, {r0, r1, ip}
    aaec:	e5d25002 	ldrb	r5, [r2, #2]
    aaf0:	e5d27000 	ldrb	r7, [r2]
    aaf4:	e5d24001 	ldrb	r4, [r2, #1]
    aaf8:	e59d2010 	ldr	r2, [sp, #16]
    aafc:	e58d311c 	str	r3, [sp, #284]	@ 0x11c
    ab00:	e28d3c01 	add	r3, sp, #256	@ 0x100
    ab04:	e58d0110 	str	r0, [sp, #272]	@ 0x110
    ab08:	e1870404 	orr	r0, r7, r4, lsl #8
    ab0c:	e592e000 	ldr	lr, [r2]
    ab10:	e5922004 	ldr	r2, [r2, #4]
    ab14:	e58d2014 	str	r2, [sp, #20]
    ab18:	e58d1114 	str	r1, [sp, #276]	@ 0x114
    ab1c:	e59d1048 	ldr	r1, [sp, #72]	@ 0x48
    ab20:	e59d204c 	ldr	r2, [sp, #76]	@ 0x4c
    ab24:	e59d8054 	ldr	r8, [sp, #84]	@ 0x54
    ab28:	e59d9058 	ldr	r9, [sp, #88]	@ 0x58
    ab2c:	e59da044 	ldr	sl, [sp, #68]	@ 0x44
    ab30:	e1c302b0 	strh	r0, [r3, #32]
    ab34:	e59d003c 	ldr	r0, [sp, #60]	@ 0x3c
    ab38:	e5cd5122 	strb	r5, [sp, #290]	@ 0x122
    ab3c:	e15a0000 	cmp	sl, r0
    ab40:	e58dc118 	str	ip, [sp, #280]	@ 0x118
    ab44:	1affffb9 	bne	aa30 <_RNvNtNtCscA5RF7Ru5It_7pi_side8language5parse11parse_value.llvm.15442064674751795473+0x14e0>
    ab48:	e28d003c 	add	r0, sp, #60	@ 0x3c
    ab4c:	e1a04001 	mov	r4, r1
    ab50:	e1a05002 	mov	r5, r2
    ab54:	e1a0700e 	mov	r7, lr
    ab58:	eb00444b 	bl	1bc8c <_RNvMs3_NtCs3SSNe1yeMmP_5alloc7raw_vecINtB5_6RawVecNtNtNtCscA5RF7Ru5It_7pi_side8language3ast5ValueE8grow_oneBS_>
    ab5c:	e1a0e007 	mov	lr, r7
    ab60:	e1a02005 	mov	r2, r5
    ab64:	e1a01004 	mov	r1, r4
    ab68:	eaffffb0 	b	aa30 <_RNvNtNtCscA5RF7Ru5It_7pi_side8language5parse11parse_value.llvm.15442064674751795473+0x14e0>
    ab6c:	e1820301 	orr	r0, r2, r1, lsl #6
    ab70:	ea000157 	b	b0d4 <_RNvNtNtCscA5RF7Ru5It_7pi_side8language5parse11parse_value.llvm.15442064674751795473+0x1b84>
    ab74:	e1820601 	orr	r0, r2, r1, lsl #12
    ab78:	e59d3024 	ldr	r3, [sp, #36]	@ 0x24
    ab7c:	e2400030 	sub	r0, r0, #48	@ 0x30
    ab80:	e3500009 	cmp	r0, #9
    ab84:	8a000283 	bhi	b598 <_RNvNtNtCscA5RF7Ru5It_7pi_side8language5parse11parse_value.llvm.15442064674751795473+0x2048>
    ab88:	e2431001 	sub	r1, r3, #1
    ab8c:	e0895003 	add	r5, r9, r3
    ab90:	e3510001 	cmp	r1, #1
    ab94:	8a000027 	bhi	ac38 <_RNvNtNtCscA5RF7Ru5It_7pi_side8language5parse11parse_value.llvm.15442064674751795473+0x16e8>
    ab98:	e3a0b000 	mov	fp, #0
    ab9c:	e1a0400c 	mov	r4, ip
    aba0:	e3a00000 	mov	r0, #0
    aba4:	ea000006 	b	abc4 <_RNvNtNtCscA5RF7Ru5It_7pi_side8language5parse11parse_value.llvm.15442064674751795473+0x1674>
    aba8:	e1862307 	orr	r2, r6, r7, lsl #6
    abac:	e2804002 	add	r4, r0, #2
    abb0:	e0430000 	sub	r0, r3, r0
    abb4:	e242203a 	sub	r2, r2, #58	@ 0x3a
    abb8:	e0800004 	add	r0, r0, r4
    abbc:	e372000b 	cmn	r2, #11
    abc0:	9a0000a5 	bls	ae5c <_RNvNtNtCscA5RF7Ru5It_7pi_side8language5parse11parse_value.llvm.15442064674751795473+0x190c>
    abc4:	e1540005 	cmp	r4, r5
    abc8:	0a0000a1 	beq	ae54 <_RNvNtNtCscA5RF7Ru5It_7pi_side8language5parse11parse_value.llvm.15442064674751795473+0x1904>
    abcc:	e1a03000 	mov	r3, r0
    abd0:	e1a00004 	mov	r0, r4
    abd4:	e0d470d1 	ldrsb	r7, [r4], #1
    abd8:	e3770001 	cmn	r7, #1
    abdc:	e6ef2077 	uxtb	r2, r7
    abe0:	cafffff2 	bgt	abb0 <_RNvNtNtCscA5RF7Ru5It_7pi_side8language5parse11parse_value.llvm.15442064674751795473+0x1660>
    abe4:	e5d06001 	ldrb	r6, [r0, #1]
    abe8:	e202701f 	and	r7, r2, #31
    abec:	e35200e0 	cmp	r2, #224	@ 0xe0
    abf0:	e206603f 	and	r6, r6, #63	@ 0x3f
    abf4:	3affffeb 	bcc	aba8 <_RNvNtNtCscA5RF7Ru5It_7pi_side8language5parse11parse_value.llvm.15442064674751795473+0x1658>
    abf8:	e5d04002 	ldrb	r4, [r0, #2]
    abfc:	e35200f0 	cmp	r2, #240	@ 0xf0
    ac00:	e204403f 	and	r4, r4, #63	@ 0x3f
    ac04:	e1846306 	orr	r6, r4, r6, lsl #6
    ac08:	3a000006 	bcc	ac28 <_RNvNtNtCscA5RF7Ru5It_7pi_side8language5parse11parse_value.llvm.15442064674751795473+0x16d8>
    ac0c:	e5d02003 	ldrb	r2, [r0, #3]
    ac10:	e2077007 	and	r7, r7, #7
    ac14:	e2804004 	add	r4, r0, #4
    ac18:	e202203f 	and	r2, r2, #63	@ 0x3f
    ac1c:	e1822306 	orr	r2, r2, r6, lsl #6
    ac20:	e1822907 	orr	r2, r2, r7, lsl #18
    ac24:	eaffffe1 	b	abb0 <_RNvNtNtCscA5RF7Ru5It_7pi_side8language5parse11parse_value.llvm.15442064674751795473+0x1660>
    ac28:	e1862607 	orr	r2, r6, r7, lsl #12
    ac2c:	e2804003 	add	r4, r0, #3
    ac30:	eaffffde 	b	abb0 <_RNvNtNtCscA5RF7Ru5It_7pi_side8language5parse11parse_value.llvm.15442064674751795473+0x1660>
    ac34:	00022394 	.word	0x00022394
    ac38:	e5dc2001 	ldrb	r2, [ip, #1]
    ac3c:	e5dc0000 	ldrb	r0, [ip]
    ac40:	e1800402 	orr	r0, r0, r2, lsl #8
    ac44:	e3a02e83 	mov	r2, #2096	@ 0x830
    ac48:	e3822a07 	orr	r2, r2, #28672	@ 0x7000
    ac4c:	e1500002 	cmp	r0, r2
    ac50:	0a000044 	beq	ad68 <_RNvNtNtCscA5RF7Ru5It_7pi_side8language5parse11parse_value.llvm.15442064674751795473+0x1818>
    ac54:	e5dc2001 	ldrb	r2, [ip, #1]
    ac58:	e5dc0000 	ldrb	r0, [ip]
    ac5c:	e1800402 	orr	r0, r0, r2, lsl #8
    ac60:	e3a02e83 	mov	r2, #2096	@ 0x830
    ac64:	e3822a05 	orr	r2, r2, #20480	@ 0x5000
    ac68:	e1500002 	cmp	r0, r2
    ac6c:	0a00003d 	beq	ad68 <_RNvNtNtCscA5RF7Ru5It_7pi_side8language5parse11parse_value.llvm.15442064674751795473+0x1818>
    ac70:	e5dc2001 	ldrb	r2, [ip, #1]
    ac74:	e5dc0000 	ldrb	r0, [ip]
    ac78:	e1800402 	orr	r0, r0, r2, lsl #8
    ac7c:	e3a02e23 	mov	r2, #560	@ 0x230
    ac80:	e3822a06 	orr	r2, r2, #24576	@ 0x6000
    ac84:	e1500002 	cmp	r0, r2
    ac88:	0a000006 	beq	aca8 <_RNvNtNtCscA5RF7Ru5It_7pi_side8language5parse11parse_value.llvm.15442064674751795473+0x1758>
    ac8c:	e5dc2001 	ldrb	r2, [ip, #1]
    ac90:	e5dc0000 	ldrb	r0, [ip]
    ac94:	e1800402 	orr	r0, r0, r2, lsl #8
    ac98:	e3a02e23 	mov	r2, #560	@ 0x230
    ac9c:	e3822901 	orr	r2, r2, #16384	@ 0x4000
    aca0:	e1500002 	cmp	r0, r2
    aca4:	1affffbb 	bne	ab98 <_RNvNtNtCscA5RF7Ru5It_7pi_side8language5parse11parse_value.llvm.15442064674751795473+0x1648>
    aca8:	e3510002 	cmp	r1, #2
    acac:	0a000002 	beq	acbc <_RNvNtNtCscA5RF7Ru5It_7pi_side8language5parse11parse_value.llvm.15442064674751795473+0x176c>
    acb0:	e1d900d3 	ldrsb	r0, [r9, #3]
    acb4:	e3700041 	cmn	r0, #65	@ 0x41
    acb8:	da000521 	ble	c144 <_RNvNtNtCscA5RF7Ru5It_7pi_side8language5parse11parse_value.llvm.15442064674751795473+0x2bf4>
    acbc:	e59f0014 	ldr	r0, [pc, #20]	@ acd8 <_RNvNtNtCscA5RF7Ru5It_7pi_side8language5parse11parse_value.llvm.15442064674751795473+0x1788>
    acc0:	e289c003 	add	ip, r9, #3
    acc4:	e2431003 	sub	r1, r3, #3
    acc8:	e3a03000 	mov	r3, #0
    accc:	e280e01f 	add	lr, r0, #31
    acd0:	e1a0600c 	mov	r6, ip
    acd4:	ea000007 	b	acf8 <_RNvNtNtCscA5RF7Ru5It_7pi_side8language5parse11parse_value.llvm.15442064674751795473+0x17a8>
    acd8:	001fffdf 	.word	0x001fffdf
    acdc:	e1847306 	orr	r7, r4, r6, lsl #6
    ace0:	e2836002 	add	r6, r3, #2
    ace4:	e0420003 	sub	r0, r2, r3
    ace8:	e0803006 	add	r3, r0, r6
    acec:	e007000e 	and	r0, r7, lr
    acf0:	e3500030 	cmp	r0, #48	@ 0x30
    acf4:	1a000179 	bne	b2e0 <_RNvNtNtCscA5RF7Ru5It_7pi_side8language5parse11parse_value.llvm.15442064674751795473+0x1d90>
    acf8:	e1560005 	cmp	r6, r5
    acfc:	0a000172 	beq	b2cc <_RNvNtNtCscA5RF7Ru5It_7pi_side8language5parse11parse_value.llvm.15442064674751795473+0x1d7c>
    ad00:	e1a02003 	mov	r2, r3
    ad04:	e1a03006 	mov	r3, r6
    ad08:	e0d640d1 	ldrsb	r4, [r6], #1
    ad0c:	e3740001 	cmn	r4, #1
    ad10:	e6ef7074 	uxtb	r7, r4
    ad14:	cafffff2 	bgt	ace4 <_RNvNtNtCscA5RF7Ru5It_7pi_side8language5parse11parse_value.llvm.15442064674751795473+0x1794>
    ad18:	e5d34001 	ldrb	r4, [r3, #1]
    ad1c:	e207601f 	and	r6, r7, #31
    ad20:	e35700e0 	cmp	r7, #224	@ 0xe0
    ad24:	e204403f 	and	r4, r4, #63	@ 0x3f
    ad28:	3affffeb 	bcc	acdc <_RNvNtNtCscA5RF7Ru5It_7pi_side8language5parse11parse_value.llvm.15442064674751795473+0x178c>
    ad2c:	e5d30002 	ldrb	r0, [r3, #2]
    ad30:	e35700f0 	cmp	r7, #240	@ 0xf0
    ad34:	e200003f 	and	r0, r0, #63	@ 0x3f
    ad38:	e1804304 	orr	r4, r0, r4, lsl #6
    ad3c:	3a000006 	bcc	ad5c <_RNvNtNtCscA5RF7Ru5It_7pi_side8language5parse11parse_value.llvm.15442064674751795473+0x180c>
    ad40:	e5d30003 	ldrb	r0, [r3, #3]
    ad44:	e200003f 	and	r0, r0, #63	@ 0x3f
    ad48:	e1800304 	orr	r0, r0, r4, lsl #6
    ad4c:	e2064007 	and	r4, r6, #7
    ad50:	e2836004 	add	r6, r3, #4
    ad54:	e1807904 	orr	r7, r0, r4, lsl #18
    ad58:	eaffffe1 	b	ace4 <_RNvNtNtCscA5RF7Ru5It_7pi_side8language5parse11parse_value.llvm.15442064674751795473+0x1794>
    ad5c:	e1847606 	orr	r7, r4, r6, lsl #12
    ad60:	e2836003 	add	r6, r3, #3
    ad64:	eaffffde 	b	ace4 <_RNvNtNtCscA5RF7Ru5It_7pi_side8language5parse11parse_value.llvm.15442064674751795473+0x1794>
    ad68:	e3510002 	cmp	r1, #2
    ad6c:	0a000002 	beq	ad7c <_RNvNtNtCscA5RF7Ru5It_7pi_side8language5parse11parse_value.llvm.15442064674751795473+0x182c>
    ad70:	e1d900d3 	ldrsb	r0, [r9, #3]
    ad74:	e3700041 	cmn	r0, #65	@ 0x41
    ad78:	da0004e2 	ble	c108 <_RNvNtNtCscA5RF7Ru5It_7pi_side8language5parse11parse_value.llvm.15442064674751795473+0x2bb8>
    ad7c:	e289c003 	add	ip, r9, #3
    ad80:	e51fe0b0 	ldr	lr, [pc, #-176]	@ acd8 <_RNvNtNtCscA5RF7Ru5It_7pi_side8language5parse11parse_value.llvm.15442064674751795473+0x1788>
    ad84:	e2431003 	sub	r1, r3, #3
    ad88:	e3a02000 	mov	r2, #0
    ad8c:	e1a0700c 	mov	r7, ip
    ad90:	e1570005 	cmp	r7, r5
    ad94:	0a0000bf 	beq	b098 <_RNvNtNtCscA5RF7Ru5It_7pi_side8language5parse11parse_value.llvm.15442064674751795473+0x1b48>
    ad98:	e1a03002 	mov	r3, r2
    ad9c:	e1a02007 	mov	r2, r7
    ada0:	e0d740d1 	ldrsb	r4, [r7], #1
    ada4:	e3740001 	cmn	r4, #1
    ada8:	e6ef6074 	uxtb	r6, r4
    adac:	ca000015 	bgt	ae08 <_RNvNtNtCscA5RF7Ru5It_7pi_side8language5parse11parse_value.llvm.15442064674751795473+0x18b8>
    adb0:	e5d24001 	ldrb	r4, [r2, #1]
    adb4:	e206701f 	and	r7, r6, #31
    adb8:	e35600e0 	cmp	r6, #224	@ 0xe0
    adbc:	e204403f 	and	r4, r4, #63	@ 0x3f
    adc0:	3a00000b 	bcc	adf4 <_RNvNtNtCscA5RF7Ru5It_7pi_side8language5parse11parse_value.llvm.15442064674751795473+0x18a4>
    adc4:	e5d20002 	ldrb	r0, [r2, #2]
    adc8:	e35600f0 	cmp	r6, #240	@ 0xf0
    adcc:	e200003f 	and	r0, r0, #63	@ 0x3f
    add0:	e1804304 	orr	r4, r0, r4, lsl #6
    add4:	3a000009 	bcc	ae00 <_RNvNtNtCscA5RF7Ru5It_7pi_side8language5parse11parse_value.llvm.15442064674751795473+0x18b0>
    add8:	e5d20003 	ldrb	r0, [r2, #3]
    addc:	e200003f 	and	r0, r0, #63	@ 0x3f
    ade0:	e1800304 	orr	r0, r0, r4, lsl #6
    ade4:	e2074007 	and	r4, r7, #7
    ade8:	e2827004 	add	r7, r2, #4
    adec:	e1806904 	orr	r6, r0, r4, lsl #18
    adf0:	ea000004 	b	ae08 <_RNvNtNtCscA5RF7Ru5It_7pi_side8language5parse11parse_value.llvm.15442064674751795473+0x18b8>
    adf4:	e1846307 	orr	r6, r4, r7, lsl #6
    adf8:	e2827002 	add	r7, r2, #2
    adfc:	ea000001 	b	ae08 <_RNvNtNtCscA5RF7Ru5It_7pi_side8language5parse11parse_value.llvm.15442064674751795473+0x18b8>
    ae00:	e1846607 	orr	r6, r4, r7, lsl #12
    ae04:	e2827003 	add	r7, r2, #3
    ae08:	e0430002 	sub	r0, r3, r2
    ae0c:	e0802007 	add	r2, r0, r7
    ae10:	e246003a 	sub	r0, r6, #58	@ 0x3a
    ae14:	e370000b 	cmn	r0, #11
    ae18:	8affffdc 	bhi	ad90 <_RNvNtNtCscA5RF7Ru5It_7pi_side8language5parse11parse_value.llvm.15442064674751795473+0x1840>
    ae1c:	e006000e 	and	r0, r6, lr
    ae20:	e2400047 	sub	r0, r0, #71	@ 0x47
    ae24:	e3700007 	cmn	r0, #7
    ae28:	8affffd8 	bhi	ad90 <_RNvNtNtCscA5RF7Ru5It_7pi_side8language5parse11parse_value.llvm.15442064674751795473+0x1840>
    ae2c:	e3530000 	cmp	r3, #0
    ae30:	0a000150 	beq	b378 <_RNvNtNtCscA5RF7Ru5It_7pi_side8language5parse11parse_value.llvm.15442064674751795473+0x1e28>
    ae34:	e59de01c 	ldr	lr, [sp, #28]
    ae38:	e1510003 	cmp	r1, r3
    ae3c:	9a00014f 	bls	b380 <_RNvNtNtCscA5RF7Ru5It_7pi_side8language5parse11parse_value.llvm.15442064674751795473+0x1e30>
    ae40:	e08c0003 	add	r0, ip, r3
    ae44:	e1d000d0 	ldrsb	r0, [r0]
    ae48:	e3700040 	cmn	r0, #64	@ 0x40
    ae4c:	aa00014c 	bge	b384 <_RNvNtNtCscA5RF7Ru5It_7pi_side8language5parse11parse_value.llvm.15442064674751795473+0x1e34>
    ae50:	ea00049c 	b	c0c8 <_RNvNtNtCscA5RF7Ru5It_7pi_side8language5parse11parse_value.llvm.15442064674751795473+0x2b78>
    ae54:	e1a03001 	mov	r3, r1
    ae58:	ea000111 	b	b2a4 <_RNvNtNtCscA5RF7Ru5It_7pi_side8language5parse11parse_value.llvm.15442064674751795473+0x1d54>
    ae5c:	e3530000 	cmp	r3, #0
    ae60:	0a0001c3 	beq	b574 <_RNvNtNtCscA5RF7Ru5It_7pi_side8language5parse11parse_value.llvm.15442064674751795473+0x2024>
    ae64:	e1510003 	cmp	r1, r3
    ae68:	9a00010a 	bls	b298 <_RNvNtNtCscA5RF7Ru5It_7pi_side8language5parse11parse_value.llvm.15442064674751795473+0x1d48>
    ae6c:	e08c0003 	add	r0, ip, r3
    ae70:	e1d000d0 	ldrsb	r0, [r0]
    ae74:	e3700040 	cmn	r0, #64	@ 0x40
    ae78:	aa000107 	bge	b29c <_RNvNtNtCscA5RF7Ru5It_7pi_side8language5parse11parse_value.llvm.15442064674751795473+0x1d4c>
    ae7c:	ea000491 	b	c0c8 <_RNvNtNtCscA5RF7Ru5It_7pi_side8language5parse11parse_value.llvm.15442064674751795473+0x2b78>
    ae80:	e3a07002 	mov	r7, #2
    ae84:	e3a0801d 	mov	r8, #29
    ae88:	e59d0024 	ldr	r0, [sp, #36]	@ 0x24
    ae8c:	e1a0b009 	mov	fp, r9
    ae90:	e58d0014 	str	r0, [sp, #20]
    ae94:	e59d6044 	ldr	r6, [sp, #68]	@ 0x44
    ae98:	e3560000 	cmp	r6, #0
    ae9c:	1afffe80 	bne	a8a4 <_RNvNtNtCscA5RF7Ru5It_7pi_side8language5parse11parse_value.llvm.15442064674751795473+0x1354>
    aea0:	eafffe85 	b	a8bc <_RNvNtNtCscA5RF7Ru5It_7pi_side8language5parse11parse_value.llvm.15442064674751795473+0x136c>
    aea4:	e3530001 	cmp	r3, #1
    aea8:	0a000002 	beq	aeb8 <_RNvNtNtCscA5RF7Ru5It_7pi_side8language5parse11parse_value.llvm.15442064674751795473+0x1968>
    aeac:	e1d100d1 	ldrsb	r0, [r1, #1]
    aeb0:	e3700041 	cmn	r0, #65	@ 0x41
    aeb4:	da00049c 	ble	c12c <_RNvNtNtCscA5RF7Ru5It_7pi_side8language5parse11parse_value.llvm.15442064674751795473+0x2bdc>
    aeb8:	e59d4044 	ldr	r4, [sp, #68]	@ 0x44
    aebc:	e281c001 	add	ip, r1, #1
    aec0:	e59d6040 	ldr	r6, [sp, #64]	@ 0x40
    aec4:	e2435001 	sub	r5, r3, #1
    aec8:	e3540002 	cmp	r4, #2
    aecc:	e58d500c 	str	r5, [sp, #12]
    aed0:	e58dc008 	str	ip, [sp, #8]
    aed4:	05d60000 	ldrbeq	r0, [r6]
    aed8:	03500004 	cmpeq	r0, #4
    aedc:	0a000179 	beq	b4c8 <_RNvNtNtCscA5RF7Ru5It_7pi_side8language5parse11parse_value.llvm.15442064674751795473+0x1f78>
    aee0:	e0849184 	add	r9, r4, r4, lsl #3
    aee4:	e59d003c 	ldr	r0, [sp, #60]	@ 0x3c
    aee8:	e58d00f0 	str	r0, [sp, #240]	@ 0xf0
    aeec:	e3540000 	cmp	r4, #0
    aef0:	e0860109 	add	r0, r6, r9, lsl #2
    aef4:	e58d60ec 	str	r6, [sp, #236]	@ 0xec
    aef8:	e58d60e8 	str	r6, [sp, #232]	@ 0xe8
    aefc:	e58d00f4 	str	r0, [sp, #244]	@ 0xf4
    af00:	0a0000e2 	beq	b290 <_RNvNtNtCscA5RF7Ru5It_7pi_side8language5parse11parse_value.llvm.15442064674751795473+0x1d40>
    af04:	e1a01000 	mov	r1, r0
    af08:	e5715024 	ldrb	r5, [r1, #-36]!	@ 0xffffffdc
    af0c:	e58d10f4 	str	r1, [sp, #244]	@ 0xf4
    af10:	e35500ff 	cmp	r5, #255	@ 0xff
    af14:	0a0000dd 	beq	b290 <_RNvNtNtCscA5RF7Ru5It_7pi_side8language5parse11parse_value.llvm.15442064674751795473+0x1d40>
    af18:	e2401023 	sub	r1, r0, #35	@ 0x23
    af1c:	e28d0048 	add	r0, sp, #72	@ 0x48
    af20:	e3a02023 	mov	r2, #35	@ 0x23
    af24:	e58d6014 	str	r6, [sp, #20]
    af28:	eb0057e7 	bl	20ecc <__aeabi_memcpy>
    af2c:	eb00462b 	bl	1c7e0 <_RNvCs7urVXOUFJf8_7___rustc35___rust_no_alloc_shim_is_unstable_v2>
    af30:	e51f050c 	ldr	r0, [pc, #-1292]	@ aa2c <_RNvNtNtCscA5RF7Ru5It_7pi_side8language5parse11parse_value.llvm.15442064674751795473+0x14dc>
    af34:	e3a01004 	mov	r1, #4
    af38:	e3a0202c 	mov	r2, #44	@ 0x2c
    af3c:	eb004653 	bl	1c890 <_RNvXs_NtCs902aIDM3RvW_14embedded_alloc4llffNtB4_4HeapNtNtNtCs5HYdw2IoCB0_4core5alloc6global11GlobalAlloc5alloc>
    af40:	e3500000 	cmp	r0, #0
    af44:	0a0003ec 	beq	befc <_RNvNtNtCscA5RF7Ru5It_7pi_side8language5parse11parse_value.llvm.15442064674751795473+0x29ac>
    af48:	e5c05008 	strb	r5, [r0, #8]
    af4c:	e3a05001 	mov	r5, #1
    af50:	e1a07000 	mov	r7, r0
    af54:	e5805000 	str	r5, [r0]
    af58:	e5805004 	str	r5, [r0, #4]
    af5c:	e2800009 	add	r0, r0, #9
    af60:	e28d1048 	add	r1, sp, #72	@ 0x48
    af64:	e3a02023 	mov	r2, #35	@ 0x23
    af68:	eb0057d7 	bl	20ecc <__aeabi_memcpy>
    af6c:	eb00461b 	bl	1c7e0 <_RNvCs7urVXOUFJf8_7___rustc35___rust_no_alloc_shim_is_unstable_v2>
    af70:	e51f054c 	ldr	r0, [pc, #-1356]	@ aa2c <_RNvNtNtCscA5RF7Ru5It_7pi_side8language5parse11parse_value.llvm.15442064674751795473+0x14dc>
    af74:	e3a01004 	mov	r1, #4
    af78:	e3a0202c 	mov	r2, #44	@ 0x2c
    af7c:	eb004643 	bl	1c890 <_RNvXs_NtCs902aIDM3RvW_14embedded_alloc4llffNtB4_4HeapNtNtNtCs5HYdw2IoCB0_4core5alloc6global11GlobalAlloc5alloc>
    af80:	e3500000 	cmp	r0, #0
    af84:	e58d0024 	str	r0, [sp, #36]	@ 0x24
    af88:	0a0003db 	beq	befc <_RNvNtNtCscA5RF7Ru5It_7pi_side8language5parse11parse_value.llvm.15442064674751795473+0x29ac>
    af8c:	e59db024 	ldr	fp, [sp, #36]	@ 0x24
    af90:	e3a00000 	mov	r0, #0
    af94:	e3540001 	cmp	r4, #1
    af98:	e58b5000 	str	r5, [fp]
    af9c:	e58b5004 	str	r5, [fp, #4]
    afa0:	e3a05005 	mov	r5, #5
    afa4:	e5cb0008 	strb	r0, [fp, #8]
    afa8:	0a000371 	beq	bd74 <_RNvNtNtCscA5RF7Ru5It_7pi_side8language5parse11parse_value.llvm.15442064674751795473+0x2824>
    afac:	e59d1014 	ldr	r1, [sp, #20]
    afb0:	e1a00109 	lsl	r0, r9, #2
    afb4:	e51fb590 	ldr	fp, [pc, #-1424]	@ aa2c <_RNvNtNtCscA5RF7Ru5It_7pi_side8language5parse11parse_value.llvm.15442064674751795473+0x14dc>
    afb8:	e28d9048 	add	r9, sp, #72	@ 0x48
    afbc:	e0801001 	add	r1, r0, r1
    afc0:	e3a0a001 	mov	sl, #1
    afc4:	e2414048 	sub	r4, r1, #72	@ 0x48
    afc8:	e2601024 	rsb	r1, r0, #36	@ 0x24
    afcc:	e5d45000 	ldrb	r5, [r4]
    afd0:	e35500ff 	cmp	r5, #255	@ 0xff
    afd4:	0a000363 	beq	bd68 <_RNvNtNtCscA5RF7Ru5It_7pi_side8language5parse11parse_value.llvm.15442064674751795473+0x2818>
    afd8:	e58d1020 	str	r1, [sp, #32]
    afdc:	e2841001 	add	r1, r4, #1
    afe0:	e1a00009 	mov	r0, r9
    afe4:	e3a02023 	mov	r2, #35	@ 0x23
    afe8:	eb0057b7 	bl	20ecc <__aeabi_memcpy>
    afec:	eb0045fb 	bl	1c7e0 <_RNvCs7urVXOUFJf8_7___rustc35___rust_no_alloc_shim_is_unstable_v2>
    aff0:	e1a0000b 	mov	r0, fp
    aff4:	e3a01004 	mov	r1, #4
    aff8:	e3a0202c 	mov	r2, #44	@ 0x2c
    affc:	eb004623 	bl	1c890 <_RNvXs_NtCs902aIDM3RvW_14embedded_alloc4llffNtB4_4HeapNtNtNtCs5HYdw2IoCB0_4core5alloc6global11GlobalAlloc5alloc>
    b000:	e3500000 	cmp	r0, #0
    b004:	0a0003bc 	beq	befc <_RNvNtNtCscA5RF7Ru5It_7pi_side8language5parse11parse_value.llvm.15442064674751795473+0x29ac>
    b008:	e5c05008 	strb	r5, [r0, #8]
    b00c:	e1a06000 	mov	r6, r0
    b010:	e580a000 	str	sl, [r0]
    b014:	e1a01009 	mov	r1, r9
    b018:	e580a004 	str	sl, [r0, #4]
    b01c:	e2800009 	add	r0, r0, #9
    b020:	e3a02023 	mov	r2, #35	@ 0x23
    b024:	e1a05009 	mov	r5, r9
    b028:	eb0057a7 	bl	20ecc <__aeabi_memcpy>
    b02c:	eb0045eb 	bl	1c7e0 <_RNvCs7urVXOUFJf8_7___rustc35___rust_no_alloc_shim_is_unstable_v2>
    b030:	e1a0000b 	mov	r0, fp
    b034:	e3a01004 	mov	r1, #4
    b038:	e3a0202c 	mov	r2, #44	@ 0x2c
    b03c:	e1a0800b 	mov	r8, fp
    b040:	eb004612 	bl	1c890 <_RNvXs_NtCs902aIDM3RvW_14embedded_alloc4llffNtB4_4HeapNtNtNtCs5HYdw2IoCB0_4core5alloc6global11GlobalAlloc5alloc>
    b044:	e3500000 	cmp	r0, #0
    b048:	0a0003ab 	beq	befc <_RNvNtNtCscA5RF7Ru5It_7pi_side8language5parse11parse_value.llvm.15442064674751795473+0x29ac>
    b04c:	e59d1024 	ldr	r1, [sp, #36]	@ 0x24
    b050:	e2444024 	sub	r4, r4, #36	@ 0x24
    b054:	e5801010 	str	r1, [r0, #16]
    b058:	e3a01005 	mov	r1, #5
    b05c:	e5c01008 	strb	r1, [r0, #8]
    b060:	e1a09005 	mov	r9, r5
    b064:	e59d1020 	ldr	r1, [sp, #32]
    b068:	e1a0b008 	mov	fp, r8
    b06c:	e580700c 	str	r7, [r0, #12]
    b070:	e1a07006 	mov	r7, r6
    b074:	e2911024 	adds	r1, r1, #36	@ 0x24
    b078:	e580a000 	str	sl, [r0]
    b07c:	e580a004 	str	sl, [r0, #4]
    b080:	e58d0024 	str	r0, [sp, #36]	@ 0x24
    b084:	1affffd0 	bne	afcc <_RNvNtNtCscA5RF7Ru5It_7pi_side8language5parse11parse_value.llvm.15442064674751795473+0x1a7c>
    b088:	e59d4014 	ldr	r4, [sp, #20]
    b08c:	e1a07006 	mov	r7, r6
    b090:	e1a0b000 	mov	fp, r0
    b094:	ea000334 	b	bd6c <_RNvNtNtCscA5RF7Ru5It_7pi_side8language5parse11parse_value.llvm.15442064674751795473+0x281c>
    b098:	e3a0b000 	mov	fp, #0
    b09c:	e3510000 	cmp	r1, #0
    b0a0:	0a0000b2 	beq	b370 <_RNvNtNtCscA5RF7Ru5It_7pi_side8language5parse11parse_value.llvm.15442064674751795473+0x1e20>
    b0a4:	e1a03001 	mov	r3, r1
    b0a8:	e59de01c 	ldr	lr, [sp, #28]
    b0ac:	ea0000b6 	b	b38c <_RNvNtNtCscA5RF7Ru5It_7pi_side8language5parse11parse_value.llvm.15442064674751795473+0x1e3c>
    b0b0:	e59d1010 	ldr	r1, [sp, #16]
    b0b4:	e59d7054 	ldr	r7, [sp, #84]	@ 0x54
    b0b8:	e59db058 	ldr	fp, [sp, #88]	@ 0x58
    b0bc:	e5910000 	ldr	r0, [r1]
    b0c0:	e58d0014 	str	r0, [sp, #20]
    b0c4:	e5910004 	ldr	r0, [r1, #4]
    b0c8:	eafffdef 	b	a88c <_RNvNtNtCscA5RF7Ru5It_7pi_side8language5parse11parse_value.llvm.15442064674751795473+0x133c>
    b0cc:	e1820601 	orr	r0, r2, r1, lsl #12
    b0d0:	e59d3024 	ldr	r3, [sp, #36]	@ 0x24
    b0d4:	e3500040 	cmp	r0, #64	@ 0x40
    b0d8:	e1a00003 	mov	r0, r3
    b0dc:	e1a06009 	mov	r6, r9
    b0e0:	1a00016a 	bne	b690 <_RNvNtNtCscA5RF7Ru5It_7pi_side8language5parse11parse_value.llvm.15442064674751795473+0x2140>
    b0e4:	e2896001 	add	r6, r9, #1
    b0e8:	e3a07024 	mov	r7, #36	@ 0x24
    b0ec:	e3530001 	cmp	r3, #1
    b0f0:	1a000001 	bne	b0fc <_RNvNtNtCscA5RF7Ru5It_7pi_side8language5parse11parse_value.llvm.15442064674751795473+0x1bac>
    b0f4:	e3a00000 	mov	r0, #0
    b0f8:	ea000164 	b	b690 <_RNvNtNtCscA5RF7Ru5It_7pi_side8language5parse11parse_value.llvm.15442064674751795473+0x2140>
    b0fc:	e1d600d0 	ldrsb	r0, [r6]
    b100:	e3700041 	cmn	r0, #65	@ 0x41
    b104:	da0003d0 	ble	c04c <_RNvNtNtCscA5RF7Ru5It_7pi_side8language5parse11parse_value.llvm.15442064674751795473+0x2afc>
    b108:	e6ef4070 	uxtb	r4, r0
    b10c:	e2430001 	sub	r0, r3, #1
    b110:	e51fc440 	ldr	ip, [pc, #-1088]	@ acd8 <_RNvNtNtCscA5RF7Ru5It_7pi_side8language5parse11parse_value.llvm.15442064674751795473+0x1788>
    b114:	e0898003 	add	r8, r9, r3
    b118:	e58d0014 	str	r0, [sp, #20]
    b11c:	e3a07000 	mov	r7, #0
    b120:	e58d6010 	str	r6, [sp, #16]
    b124:	e6af0074 	sxtb	r0, r4
    b128:	e3700001 	cmn	r0, #1
    b12c:	ca000016 	bgt	b18c <_RNvNtNtCscA5RF7Ru5It_7pi_side8language5parse11parse_value.llvm.15442064674751795473+0x1c3c>
    b130:	e5d61001 	ldrb	r1, [r6, #1]
    b134:	e204001f 	and	r0, r4, #31
    b138:	e35400e0 	cmp	r4, #224	@ 0xe0
    b13c:	e201103f 	and	r1, r1, #63	@ 0x3f
    b140:	3a00000b 	bcc	b174 <_RNvNtNtCscA5RF7Ru5It_7pi_side8language5parse11parse_value.llvm.15442064674751795473+0x1c24>
    b144:	e5d62002 	ldrb	r2, [r6, #2]
    b148:	e35400f0 	cmp	r4, #240	@ 0xf0
    b14c:	e202203f 	and	r2, r2, #63	@ 0x3f
    b150:	e1821301 	orr	r1, r2, r1, lsl #6
    b154:	3a000009 	bcc	b180 <_RNvNtNtCscA5RF7Ru5It_7pi_side8language5parse11parse_value.llvm.15442064674751795473+0x1c30>
    b158:	e5d62003 	ldrb	r2, [r6, #3]
    b15c:	e2000007 	and	r0, r0, #7
    b160:	e2865004 	add	r5, r6, #4
    b164:	e202203f 	and	r2, r2, #63	@ 0x3f
    b168:	e1821301 	orr	r1, r2, r1, lsl #6
    b16c:	e1814900 	orr	r4, r1, r0, lsl #18
    b170:	ea000006 	b	b190 <_RNvNtNtCscA5RF7Ru5It_7pi_side8language5parse11parse_value.llvm.15442064674751795473+0x1c40>
    b174:	e1814300 	orr	r4, r1, r0, lsl #6
    b178:	e2865002 	add	r5, r6, #2
    b17c:	ea000003 	b	b190 <_RNvNtNtCscA5RF7Ru5It_7pi_side8language5parse11parse_value.llvm.15442064674751795473+0x1c40>
    b180:	e1814600 	orr	r4, r1, r0, lsl #12
    b184:	e2865003 	add	r5, r6, #3
    b188:	ea000000 	b	b190 <_RNvNtNtCscA5RF7Ru5It_7pi_side8language5parse11parse_value.llvm.15442064674751795473+0x1c40>
    b18c:	e2865001 	add	r5, r6, #1
    b190:	e004000c 	and	r0, r4, ip
    b194:	e2400041 	sub	r0, r0, #65	@ 0x41
    b198:	e350001a 	cmp	r0, #26
    b19c:	22440030 	subcs	r0, r4, #48	@ 0x30
    b1a0:	2350000a 	cmpcs	r0, #10
    b1a4:	2a000009 	bcs	b1d0 <_RNvNtNtCscA5RF7Ru5It_7pi_side8language5parse11parse_value.llvm.15442064674751795473+0x1c80>
    b1a8:	e1550008 	cmp	r5, r8
    b1ac:	0a000025 	beq	b248 <_RNvNtNtCscA5RF7Ru5It_7pi_side8language5parse11parse_value.llvm.15442064674751795473+0x1cf8>
    b1b0:	e0470006 	sub	r0, r7, r6
    b1b4:	e5d54000 	ldrb	r4, [r5]
    b1b8:	e0807005 	add	r7, r0, r5
    b1bc:	e1a06005 	mov	r6, r5
    b1c0:	e6af0074 	sxtb	r0, r4
    b1c4:	e3700001 	cmn	r0, #1
    b1c8:	caffffef 	bgt	b18c <_RNvNtNtCscA5RF7Ru5It_7pi_side8language5parse11parse_value.llvm.15442064674751795473+0x1c3c>
    b1cc:	eaffffd7 	b	b130 <_RNvNtNtCscA5RF7Ru5It_7pi_side8language5parse11parse_value.llvm.15442064674751795473+0x1be0>
    b1d0:	e35400aa 	cmp	r4, #170	@ 0xaa
    b1d4:	2a000009 	bcs	b200 <_RNvNtNtCscA5RF7Ru5It_7pi_side8language5parse11parse_value.llvm.15442064674751795473+0x1cb0>
    b1d8:	e2440021 	sub	r0, r4, #33	@ 0x21
    b1dc:	e350001e 	cmp	r0, #30
    b1e0:	8a000003 	bhi	b1f4 <_RNvNtNtCscA5RF7Ru5It_7pi_side8language5parse11parse_value.llvm.15442064674751795473+0x1ca4>
    b1e4:	e59f1f90 	ldr	r1, [pc, #3984]	@ c17c <_RNvNtNtCscA5RF7Ru5It_7pi_side8language5parse11parse_value.llvm.15442064674751795473+0x2c2c>
    b1e8:	e3a02001 	mov	r2, #1
    b1ec:	e1110012 	tst	r1, r2, lsl r0
    b1f0:	1affffec 	bne	b1a8 <_RNvNtNtCscA5RF7Ru5It_7pi_side8language5parse11parse_value.llvm.15442064674751795473+0x1c58>
    b1f4:	e354005f 	cmp	r4, #95	@ 0x5f
    b1f8:	0affffea 	beq	b1a8 <_RNvNtNtCscA5RF7Ru5It_7pi_side8language5parse11parse_value.llvm.15442064674751795473+0x1c58>
    b1fc:	ea000113 	b	b650 <_RNvNtNtCscA5RF7Ru5It_7pi_side8language5parse11parse_value.llvm.15442064674751795473+0x2100>
    b200:	e1a00004 	mov	r0, r4
    b204:	e1a0b00c 	mov	fp, ip
    b208:	eb004d5c 	bl	1e780 <_RNvNtNtNtCs5HYdw2IoCB0_4core7unicode12unicode_data10alphabetic11lookup_slow>
    b20c:	e59d3024 	ldr	r3, [sp, #36]	@ 0x24
    b210:	e1a0c00b 	mov	ip, fp
    b214:	e59de01c 	ldr	lr, [sp, #28]
    b218:	e3500000 	cmp	r0, #0
    b21c:	1affffe1 	bne	b1a8 <_RNvNtNtCscA5RF7Ru5It_7pi_side8language5parse11parse_value.llvm.15442064674751795473+0x1c58>
    b220:	e35400b2 	cmp	r4, #178	@ 0xb2
    b224:	3affffeb 	bcc	b1d8 <_RNvNtNtCscA5RF7Ru5It_7pi_side8language5parse11parse_value.llvm.15442064674751795473+0x1c88>
    b228:	e1a00004 	mov	r0, r4
    b22c:	eb005426 	bl	202cc <_RNvNtNtNtCs5HYdw2IoCB0_4core7unicode12unicode_data1n11lookup_slow>
    b230:	e59d3024 	ldr	r3, [sp, #36]	@ 0x24
    b234:	e1a0c00b 	mov	ip, fp
    b238:	e59de01c 	ldr	lr, [sp, #28]
    b23c:	e3500000 	cmp	r0, #0
    b240:	1affffd8 	bne	b1a8 <_RNvNtNtCscA5RF7Ru5It_7pi_side8language5parse11parse_value.llvm.15442064674751795473+0x1c58>
    b244:	eaffffe3 	b	b1d8 <_RNvNtNtCscA5RF7Ru5It_7pi_side8language5parse11parse_value.llvm.15442064674751795473+0x1c88>
    b248:	e3a04000 	mov	r4, #0
    b24c:	e2890001 	add	r0, r9, #1
    b250:	e59d1014 	ldr	r1, [sp, #20]
    b254:	eb00278c 	bl	1508c <_RNvMNtNtCscA5RF7Ru5It_7pi_side8language8syscallsNtB2_7Syscall9from_name>
    b258:	e1e01000 	mvn	r1, r0
    b25c:	e31100ff 	tst	r1, #255	@ 0xff
    b260:	0a000105 	beq	b67c <_RNvNtNtCscA5RF7Ru5It_7pi_side8language5parse11parse_value.llvm.15442064674751795473+0x212c>
    b264:	e59d201c 	ldr	r2, [sp, #28]
    b268:	e3a01000 	mov	r1, #0
    b26c:	e5ca0009 	strb	r0, [sl, #9]
    b270:	e3a00009 	mov	r0, #9
    b274:	e5ca0008 	strb	r0, [sl, #8]
    b278:	e5821000 	str	r1, [r2]
    b27c:	e5821004 	str	r1, [r2, #4]
    b280:	e58a8000 	str	r8, [sl]
    b284:	e58a4004 	str	r4, [sl, #4]
    b288:	e28ddf49 	add	sp, sp, #292	@ 0x124
    b28c:	e8bd8ff0 	pop	{r4, r5, r6, r7, r8, r9, sl, fp, pc}
    b290:	e3a05000 	mov	r5, #0
    b294:	ea0002b7 	b	bd78 <_RNvNtNtCscA5RF7Ru5It_7pi_side8language5parse11parse_value.llvm.15442064674751795473+0x2828>
    b298:	1a00038a 	bne	c0c8 <_RNvNtNtCscA5RF7Ru5It_7pi_side8language5parse11parse_value.llvm.15442064674751795473+0x2b78>
    b29c:	e08c5003 	add	r5, ip, r3
    b2a0:	e041b003 	sub	fp, r1, r3
    b2a4:	e28d0048 	add	r0, sp, #72	@ 0x48
    b2a8:	e1a02003 	mov	r2, r3
    b2ac:	e1a0100c 	mov	r1, ip
    b2b0:	e3a0300a 	mov	r3, #10
    b2b4:	ebfff6cd 	bl	8df0 <_RNvMsB_NtCs5HYdw2IoCB0_4core3numm16from_ascii_radix>
    b2b8:	e5dd0048 	ldrb	r0, [sp, #72]	@ 0x48
    b2bc:	e3500001 	cmp	r0, #1
    b2c0:	1a000011 	bne	b30c <_RNvNtNtCscA5RF7Ru5It_7pi_side8language5parse11parse_value.llvm.15442064674751795473+0x1dbc>
    b2c4:	e59de01c 	ldr	lr, [sp, #28]
    b2c8:	ea000074 	b	b4a0 <_RNvNtNtCscA5RF7Ru5It_7pi_side8language5parse11parse_value.llvm.15442064674751795473+0x1f50>
    b2cc:	e3a0b000 	mov	fp, #0
    b2d0:	e3510000 	cmp	r1, #0
    b2d4:	0a00009f 	beq	b558 <_RNvNtNtCscA5RF7Ru5It_7pi_side8language5parse11parse_value.llvm.15442064674751795473+0x2008>
    b2d8:	e1a02001 	mov	r2, r1
    b2dc:	ea000003 	b	b2f0 <_RNvNtNtCscA5RF7Ru5It_7pi_side8language5parse11parse_value.llvm.15442064674751795473+0x1da0>
    b2e0:	e3520000 	cmp	r2, #0
    b2e4:	0a0000a0 	beq	b56c <_RNvNtNtCscA5RF7Ru5It_7pi_side8language5parse11parse_value.llvm.15442064674751795473+0x201c>
    b2e8:	e08c5002 	add	r5, ip, r2
    b2ec:	e041b002 	sub	fp, r1, r2
    b2f0:	e28d0048 	add	r0, sp, #72	@ 0x48
    b2f4:	e1a0100c 	mov	r1, ip
    b2f8:	e3a03002 	mov	r3, #2
    b2fc:	ebfff6bb 	bl	8df0 <_RNvMsB_NtCs5HYdw2IoCB0_4core3numm16from_ascii_radix>
    b300:	e5dd0048 	ldrb	r0, [sp, #72]	@ 0x48
    b304:	e3500001 	cmp	r0, #1
    b308:	0affffed 	beq	b2c4 <_RNvNtNtCscA5RF7Ru5It_7pi_side8language5parse11parse_value.llvm.15442064674751795473+0x1d74>
    b30c:	e59d604c 	ldr	r6, [sp, #76]	@ 0x4c
    b310:	e59de01c 	ldr	lr, [sp, #28]
    b314:	e59d3024 	ldr	r3, [sp, #36]	@ 0x24
    b318:	e35b0000 	cmp	fp, #0
    b31c:	0a0000ad 	beq	b5d8 <_RNvNtNtCscA5RF7Ru5It_7pi_side8language5parse11parse_value.llvm.15442064674751795473+0x2088>
    b320:	e1d500d0 	ldrsb	r0, [r5]
    b324:	e3700001 	cmn	r0, #1
    b328:	e6ef7070 	uxtb	r7, r0
    b32c:	ca000093 	bgt	b580 <_RNvNtNtCscA5RF7Ru5It_7pi_side8language5parse11parse_value.llvm.15442064674751795473+0x2030>
    b330:	e5d51001 	ldrb	r1, [r5, #1]
    b334:	e207001f 	and	r0, r7, #31
    b338:	e35700e0 	cmp	r7, #224	@ 0xe0
    b33c:	e201103f 	and	r1, r1, #63	@ 0x3f
    b340:	3a00005e 	bcc	b4c0 <_RNvNtNtCscA5RF7Ru5It_7pi_side8language5parse11parse_value.llvm.15442064674751795473+0x1f70>
    b344:	e5d52002 	ldrb	r2, [r5, #2]
    b348:	e35700f0 	cmp	r7, #240	@ 0xf0
    b34c:	e202203f 	and	r2, r2, #63	@ 0x3f
    b350:	e1821301 	orr	r1, r2, r1, lsl #6
    b354:	3a000088 	bcc	b57c <_RNvNtNtCscA5RF7Ru5It_7pi_side8language5parse11parse_value.llvm.15442064674751795473+0x202c>
    b358:	e5d52003 	ldrb	r2, [r5, #3]
    b35c:	e2000007 	and	r0, r0, #7
    b360:	e202203f 	and	r2, r2, #63	@ 0x3f
    b364:	e1821301 	orr	r1, r2, r1, lsl #6
    b368:	e1817900 	orr	r7, r1, r0, lsl #18
    b36c:	ea000083 	b	b580 <_RNvNtNtCscA5RF7Ru5It_7pi_side8language5parse11parse_value.llvm.15442064674751795473+0x2030>
    b370:	e3a08011 	mov	r8, #17
    b374:	ea000078 	b	b55c <_RNvNtNtCscA5RF7Ru5It_7pi_side8language5parse11parse_value.llvm.15442064674751795473+0x200c>
    b378:	e3a08011 	mov	r8, #17
    b37c:	ea00007b 	b	b570 <_RNvNtNtCscA5RF7Ru5It_7pi_side8language5parse11parse_value.llvm.15442064674751795473+0x2020>
    b380:	1a000350 	bne	c0c8 <_RNvNtNtCscA5RF7Ru5It_7pi_side8language5parse11parse_value.llvm.15442064674751795473+0x2b78>
    b384:	e08c5003 	add	r5, ip, r3
    b388:	e041b003 	sub	fp, r1, r3
    b38c:	e5dc0000 	ldrb	r0, [ip]
    b390:	e3530001 	cmp	r3, #1
    b394:	1a000002 	bne	b3a4 <_RNvNtNtCscA5RF7Ru5It_7pi_side8language5parse11parse_value.llvm.15442064674751795473+0x1e54>
    b398:	e350002b 	cmp	r0, #43	@ 0x2b
    b39c:	1350002d 	cmpne	r0, #45	@ 0x2d
    b3a0:	0a00003e 	beq	b4a0 <_RNvNtNtCscA5RF7Ru5It_7pi_side8language5parse11parse_value.llvm.15442064674751795473+0x1f50>
    b3a4:	e350002b 	cmp	r0, #43	@ 0x2b
    b3a8:	028cc001 	addeq	ip, ip, #1
    b3ac:	02433001 	subeq	r3, r3, #1
    b3b0:	e3530009 	cmp	r3, #9
    b3b4:	2a000026 	bcs	b454 <_RNvNtNtCscA5RF7Ru5It_7pi_side8language5parse11parse_value.llvm.15442064674751795473+0x1f04>
    b3b8:	e3530000 	cmp	r3, #0
    b3bc:	0a000068 	beq	b564 <_RNvNtNtCscA5RF7Ru5It_7pi_side8language5parse11parse_value.llvm.15442064674751795473+0x2014>
    b3c0:	e5dc0000 	ldrb	r0, [ip]
    b3c4:	e2401041 	sub	r1, r0, #65	@ 0x41
    b3c8:	e2406030 	sub	r6, r0, #48	@ 0x30
    b3cc:	e3c11020 	bic	r1, r1, #32
    b3d0:	e3500039 	cmp	r0, #57	@ 0x39
    b3d4:	8281600a 	addhi	r6, r1, #10
    b3d8:	e356000f 	cmp	r6, #15
    b3dc:	8a00002f 	bhi	b4a0 <_RNvNtNtCscA5RF7Ru5It_7pi_side8language5parse11parse_value.llvm.15442064674751795473+0x1f50>
    b3e0:	e3530001 	cmp	r3, #1
    b3e4:	0affffca 	beq	b314 <_RNvNtNtCscA5RF7Ru5It_7pi_side8language5parse11parse_value.llvm.15442064674751795473+0x1dc4>
    b3e8:	e5dc1001 	ldrb	r1, [ip, #1]
    b3ec:	e2412041 	sub	r2, r1, #65	@ 0x41
    b3f0:	e2410030 	sub	r0, r1, #48	@ 0x30
    b3f4:	e3c22020 	bic	r2, r2, #32
    b3f8:	e3510039 	cmp	r1, #57	@ 0x39
    b3fc:	8282000a 	addhi	r0, r2, #10
    b400:	e350000f 	cmp	r0, #15
    b404:	8a000025 	bhi	b4a0 <_RNvNtNtCscA5RF7Ru5It_7pi_side8language5parse11parse_value.llvm.15442064674751795473+0x1f50>
    b408:	e1806206 	orr	r6, r0, r6, lsl #4
    b40c:	e3530002 	cmp	r3, #2
    b410:	0affffbf 	beq	b314 <_RNvNtNtCscA5RF7Ru5It_7pi_side8language5parse11parse_value.llvm.15442064674751795473+0x1dc4>
    b414:	e5dc1002 	ldrb	r1, [ip, #2]
    b418:	e2412041 	sub	r2, r1, #65	@ 0x41
    b41c:	e2410030 	sub	r0, r1, #48	@ 0x30
    b420:	e3c22020 	bic	r2, r2, #32
    b424:	e3510039 	cmp	r1, #57	@ 0x39
    b428:	8282000a 	addhi	r0, r2, #10
    b42c:	e350000f 	cmp	r0, #15
    b430:	8a00001a 	bhi	b4a0 <_RNvNtNtCscA5RF7Ru5It_7pi_side8language5parse11parse_value.llvm.15442064674751795473+0x1f50>
    b434:	e1806206 	orr	r6, r0, r6, lsl #4
    b438:	e1a0700a 	mov	r7, sl
    b43c:	e3530003 	cmp	r3, #3
    b440:	1a0002b0 	bne	bf08 <_RNvNtNtCscA5RF7Ru5It_7pi_side8language5parse11parse_value.llvm.15442064674751795473+0x29b8>
    b444:	e1a0a007 	mov	sl, r7
    b448:	e59de01c 	ldr	lr, [sp, #28]
    b44c:	e59d9020 	ldr	r9, [sp, #32]
    b450:	eaffffaf 	b	b314 <_RNvNtNtCscA5RF7Ru5It_7pi_side8language5parse11parse_value.llvm.15442064674751795473+0x1dc4>
    b454:	e3a00000 	mov	r0, #0
    b458:	e3a06000 	mov	r6, #0
    b45c:	e3530000 	cmp	r3, #0
    b460:	0affffab 	beq	b314 <_RNvNtNtCscA5RF7Ru5It_7pi_side8language5parse11parse_value.llvm.15442064674751795473+0x1dc4>
    b464:	e376021f 	cmn	r6, #-268435455	@ 0xf0000001
    b468:	8a00000c 	bhi	b4a0 <_RNvNtNtCscA5RF7Ru5It_7pi_side8language5parse11parse_value.llvm.15442064674751795473+0x1f50>
    b46c:	e4dc1001 	ldrb	r1, [ip], #1
    b470:	e2417041 	sub	r7, r1, #65	@ 0x41
    b474:	e2412030 	sub	r2, r1, #48	@ 0x30
    b478:	e3c77020 	bic	r7, r7, #32
    b47c:	e3510039 	cmp	r1, #57	@ 0x39
    b480:	8287200a 	addhi	r2, r7, #10
    b484:	e0926206 	adds	r6, r2, r6, lsl #4
    b488:	e2a01000 	adc	r1, r0, #0
    b48c:	e352000f 	cmp	r2, #15
    b490:	8a000002 	bhi	b4a0 <_RNvNtNtCscA5RF7Ru5It_7pi_side8language5parse11parse_value.llvm.15442064674751795473+0x1f50>
    b494:	e2433001 	sub	r3, r3, #1
    b498:	e3510000 	cmp	r1, #0
    b49c:	0affffee 	beq	b45c <_RNvNtNtCscA5RF7Ru5It_7pi_side8language5parse11parse_value.llvm.15442064674751795473+0x1f0c>
    b4a0:	e3a00010 	mov	r0, #16
    b4a4:	e59d1024 	ldr	r1, [sp, #36]	@ 0x24
    b4a8:	e58e0004 	str	r0, [lr, #4]
    b4ac:	e3a00002 	mov	r0, #2
    b4b0:	e58e1000 	str	r1, [lr]
    b4b4:	e58a000c 	str	r0, [sl, #12]
    b4b8:	e58a9010 	str	r9, [sl, #16]
    b4bc:	eafff832 	b	958c <_RNvNtNtCscA5RF7Ru5It_7pi_side8language5parse11parse_value.llvm.15442064674751795473+0x3c>
    b4c0:	e1817300 	orr	r7, r1, r0, lsl #6
    b4c4:	ea00002d 	b	b580 <_RNvNtNtCscA5RF7Ru5It_7pi_side8language5parse11parse_value.llvm.15442064674751795473+0x2030>
    b4c8:	e5961004 	ldr	r1, [r6, #4]
    b4cc:	e5910008 	ldr	r0, [r1, #8]
    b4d0:	e3500004 	cmp	r0, #4
    b4d4:	3afffe81 	bcc	aee0 <_RNvNtNtCscA5RF7Ru5It_7pi_side8language5parse11parse_value.llvm.15442064674751795473+0x1990>
    b4d8:	e281200c 	add	r2, r1, #12
    b4dc:	e5d23000 	ldrb	r3, [r2]
    b4e0:	e2437041 	sub	r7, r3, #65	@ 0x41
    b4e4:	e357001a 	cmp	r7, #26
    b4e8:	33833020 	orrcc	r3, r3, #32
    b4ec:	e3530063 	cmp	r3, #99	@ 0x63
    b4f0:	1afffe7a 	bne	aee0 <_RNvNtNtCscA5RF7Ru5It_7pi_side8language5parse11parse_value.llvm.15442064674751795473+0x1990>
    b4f4:	e0822000 	add	r2, r2, r0
    b4f8:	e5522001 	ldrb	r2, [r2, #-1]
    b4fc:	e2423041 	sub	r3, r2, #65	@ 0x41
    b500:	e353001a 	cmp	r3, #26
    b504:	33822020 	orrcc	r2, r2, #32
    b508:	e3520072 	cmp	r2, #114	@ 0x72
    b50c:	1afffe73 	bne	aee0 <_RNvNtNtCscA5RF7Ru5It_7pi_side8language5parse11parse_value.llvm.15442064674751795473+0x1990>
    b510:	e2400002 	sub	r0, r0, #2
    b514:	e281100d 	add	r1, r1, #13
    b518:	ea000004 	b	b530 <_RNvNtNtCscA5RF7Ru5It_7pi_side8language5parse11parse_value.llvm.15442064674751795473+0x1fe0>
    b51c:	e1832002 	orr	r2, r3, r2
    b520:	e3520064 	cmp	r2, #100	@ 0x64
    b524:	1afffe6d 	bne	aee0 <_RNvNtNtCscA5RF7Ru5It_7pi_side8language5parse11parse_value.llvm.15442064674751795473+0x1990>
    b528:	e2500001 	subs	r0, r0, #1
    b52c:	0a000219 	beq	bd98 <_RNvNtNtCscA5RF7Ru5It_7pi_side8language5parse11parse_value.llvm.15442064674751795473+0x2848>
    b530:	e4d12001 	ldrb	r2, [r1], #1
    b534:	e3a03000 	mov	r3, #0
    b538:	e3520041 	cmp	r2, #65	@ 0x41
    b53c:	3afffff6 	bcc	b51c <_RNvNtNtCscA5RF7Ru5It_7pi_side8language5parse11parse_value.llvm.15442064674751795473+0x1fcc>
    b540:	e352005b 	cmp	r2, #91	@ 0x5b
    b544:	33a03020 	movcc	r3, #32
    b548:	e1837002 	orr	r7, r3, r2
    b54c:	e3570061 	cmp	r7, #97	@ 0x61
    b550:	1afffff1 	bne	b51c <_RNvNtNtCscA5RF7Ru5It_7pi_side8language5parse11parse_value.llvm.15442064674751795473+0x1fcc>
    b554:	eafffff3 	b	b528 <_RNvNtNtCscA5RF7Ru5It_7pi_side8language5parse11parse_value.llvm.15442064674751795473+0x1fd8>
    b558:	e3a08024 	mov	r8, #36	@ 0x24
    b55c:	e3a01000 	mov	r1, #0
    b560:	ea000002 	b	b570 <_RNvNtNtCscA5RF7Ru5It_7pi_side8language5parse11parse_value.llvm.15442064674751795473+0x2020>
    b564:	e3a06000 	mov	r6, #0
    b568:	eaffff69 	b	b314 <_RNvNtNtCscA5RF7Ru5It_7pi_side8language5parse11parse_value.llvm.15442064674751795473+0x1dc4>
    b56c:	e3a08024 	mov	r8, #36	@ 0x24
    b570:	e59de01c 	ldr	lr, [sp, #28]
    b574:	e59d3024 	ldr	r3, [sp, #36]	@ 0x24
    b578:	eafffbb0 	b	a440 <_RNvNtNtCscA5RF7Ru5It_7pi_side8language5parse11parse_value.llvm.15442064674751795473+0xef0>
    b57c:	e1817600 	orr	r7, r1, r0, lsl #12
    b580:	e3c70020 	bic	r0, r7, #32
    b584:	e2400041 	sub	r0, r0, #65	@ 0x41
    b588:	e350001a 	cmp	r0, #26
    b58c:	22470030 	subcs	r0, r7, #48	@ 0x30
    b590:	2350000a 	cmpcs	r0, #10
    b594:	2a000002 	bcs	b5a4 <_RNvNtNtCscA5RF7Ru5It_7pi_side8language5parse11parse_value.llvm.15442064674751795473+0x2054>
    b598:	e1a0c009 	mov	ip, r9
    b59c:	e1a01003 	mov	r1, r3
    b5a0:	eafffba6 	b	a440 <_RNvNtNtCscA5RF7Ru5It_7pi_side8language5parse11parse_value.llvm.15442064674751795473+0xef0>
    b5a4:	e35700aa 	cmp	r7, #170	@ 0xaa
    b5a8:	2a000015 	bcs	b604 <_RNvNtNtCscA5RF7Ru5It_7pi_side8language5parse11parse_value.llvm.15442064674751795473+0x20b4>
    b5ac:	e2470021 	sub	r0, r7, #33	@ 0x21
    b5b0:	e350001e 	cmp	r0, #30
    b5b4:	8a000003 	bhi	b5c8 <_RNvNtNtCscA5RF7Ru5It_7pi_side8language5parse11parse_value.llvm.15442064674751795473+0x2078>
    b5b8:	e59f1bbc 	ldr	r1, [pc, #3004]	@ c17c <_RNvNtNtCscA5RF7Ru5It_7pi_side8language5parse11parse_value.llvm.15442064674751795473+0x2c2c>
    b5bc:	e3a02001 	mov	r2, #1
    b5c0:	e1110012 	tst	r1, r2, lsl r0
    b5c4:	1afffff3 	bne	b598 <_RNvNtNtCscA5RF7Ru5It_7pi_side8language5parse11parse_value.llvm.15442064674751795473+0x2048>
    b5c8:	e1a0c009 	mov	ip, r9
    b5cc:	e1a01003 	mov	r1, r3
    b5d0:	e357005f 	cmp	r7, #95	@ 0x5f
    b5d4:	0afffb99 	beq	a440 <_RNvNtNtCscA5RF7Ru5It_7pi_side8language5parse11parse_value.llvm.15442064674751795473+0xef0>
    b5d8:	e3a00000 	mov	r0, #0
    b5dc:	e58a6010 	str	r6, [sl, #16]
    b5e0:	e58e0000 	str	r0, [lr]
    b5e4:	e58e0004 	str	r0, [lr, #4]
    b5e8:	e3a00001 	mov	r0, #1
    b5ec:	e58a000c 	str	r0, [sl, #12]
    b5f0:	e3a00006 	mov	r0, #6
    b5f4:	e5ca0008 	strb	r0, [sl, #8]
    b5f8:	e88a0820 	stm	sl, {r5, fp}
    b5fc:	e28ddf49 	add	sp, sp, #292	@ 0x124
    b600:	e8bd8ff0 	pop	{r4, r5, r6, r7, r8, r9, sl, fp, pc}
    b604:	e1a00007 	mov	r0, r7
    b608:	eb004c5c 	bl	1e780 <_RNvNtNtNtCs5HYdw2IoCB0_4core7unicode12unicode_data10alphabetic11lookup_slow>
    b60c:	e3500000 	cmp	r0, #0
    b610:	0a000003 	beq	b624 <_RNvNtNtCscA5RF7Ru5It_7pi_side8language5parse11parse_value.llvm.15442064674751795473+0x20d4>
    b614:	e59d3024 	ldr	r3, [sp, #36]	@ 0x24
    b618:	e1a0c009 	mov	ip, r9
    b61c:	e59de01c 	ldr	lr, [sp, #28]
    b620:	eaffffdd 	b	b59c <_RNvNtNtCscA5RF7Ru5It_7pi_side8language5parse11parse_value.llvm.15442064674751795473+0x204c>
    b624:	e59de01c 	ldr	lr, [sp, #28]
    b628:	e35700b2 	cmp	r7, #178	@ 0xb2
    b62c:	e59d3024 	ldr	r3, [sp, #36]	@ 0x24
    b630:	3affffdd 	bcc	b5ac <_RNvNtNtCscA5RF7Ru5It_7pi_side8language5parse11parse_value.llvm.15442064674751795473+0x205c>
    b634:	e1a00007 	mov	r0, r7
    b638:	eb005323 	bl	202cc <_RNvNtNtNtCs5HYdw2IoCB0_4core7unicode12unicode_data1n11lookup_slow>
    b63c:	e59d3024 	ldr	r3, [sp, #36]	@ 0x24
    b640:	e3500000 	cmp	r0, #0
    b644:	e59de01c 	ldr	lr, [sp, #28]
    b648:	1affffd2 	bne	b598 <_RNvNtNtCscA5RF7Ru5It_7pi_side8language5parse11parse_value.llvm.15442064674751795473+0x2048>
    b64c:	eaffffd6 	b	b5ac <_RNvNtNtCscA5RF7Ru5It_7pi_side8language5parse11parse_value.llvm.15442064674751795473+0x205c>
    b650:	e3570000 	cmp	r7, #0
    b654:	0a0001cb 	beq	bd88 <_RNvNtNtCscA5RF7Ru5It_7pi_side8language5parse11parse_value.llvm.15442064674751795473+0x2838>
    b658:	e59d1014 	ldr	r1, [sp, #20]
    b65c:	e2890001 	add	r0, r9, #1
    b660:	e0808007 	add	r8, r0, r7
    b664:	e0414007 	sub	r4, r1, r7
    b668:	e1a01007 	mov	r1, r7
    b66c:	eb002686 	bl	1508c <_RNvMNtNtCscA5RF7Ru5It_7pi_side8language8syscallsNtB2_7Syscall9from_name>
    b670:	e1e01000 	mvn	r1, r0
    b674:	e31100ff 	tst	r1, #255	@ 0xff
    b678:	1afffef9 	bne	b264 <_RNvNtNtCscA5RF7Ru5It_7pi_side8language5parse11parse_value.llvm.15442064674751795473+0x1d14>
    b67c:	e59d3024 	ldr	r3, [sp, #36]	@ 0x24
    b680:	e3a07000 	mov	r7, #0
    b684:	e59de01c 	ldr	lr, [sp, #28]
    b688:	e1a06009 	mov	r6, r9
    b68c:	e1a00003 	mov	r0, r3
    b690:	e88e0081 	stm	lr, {r0, r7}
    b694:	e3a00001 	mov	r0, #1
    b698:	e3530000 	cmp	r3, #0
    b69c:	e58a000c 	str	r0, [sl, #12]
    b6a0:	e3a000ff 	mov	r0, #255	@ 0xff
    b6a4:	e58a6010 	str	r6, [sl, #16]
    b6a8:	e5ca0008 	strb	r0, [sl, #8]
    b6ac:	0a000081 	beq	b8b8 <_RNvNtNtCscA5RF7Ru5It_7pi_side8language5parse11parse_value.llvm.15442064674751795473+0x2368>
    b6b0:	e59d7020 	ldr	r7, [sp, #32]
    b6b4:	e59d3024 	ldr	r3, [sp, #36]	@ 0x24
    b6b8:	e1d700d0 	ldrsb	r0, [r7]
    b6bc:	e3700001 	cmn	r0, #1
    b6c0:	e6ef8070 	uxtb	r8, r0
    b6c4:	ca000012 	bgt	b714 <_RNvNtNtCscA5RF7Ru5It_7pi_side8language5parse11parse_value.llvm.15442064674751795473+0x21c4>
    b6c8:	e5d71001 	ldrb	r1, [r7, #1]
    b6cc:	e208001f 	and	r0, r8, #31
    b6d0:	e35800e0 	cmp	r8, #224	@ 0xe0
    b6d4:	e201103f 	and	r1, r1, #63	@ 0x3f
    b6d8:	3a00000a 	bcc	b708 <_RNvNtNtCscA5RF7Ru5It_7pi_side8language5parse11parse_value.llvm.15442064674751795473+0x21b8>
    b6dc:	e5d72002 	ldrb	r2, [r7, #2]
    b6e0:	e35800f0 	cmp	r8, #240	@ 0xf0
    b6e4:	e202203f 	and	r2, r2, #63	@ 0x3f
    b6e8:	e1821301 	orr	r1, r2, r1, lsl #6
    b6ec:	3a000007 	bcc	b710 <_RNvNtNtCscA5RF7Ru5It_7pi_side8language5parse11parse_value.llvm.15442064674751795473+0x21c0>
    b6f0:	e5d72003 	ldrb	r2, [r7, #3]
    b6f4:	e2000007 	and	r0, r0, #7
    b6f8:	e202203f 	and	r2, r2, #63	@ 0x3f
    b6fc:	e1821301 	orr	r1, r2, r1, lsl #6
    b700:	e1818900 	orr	r8, r1, r0, lsl #18
    b704:	ea000002 	b	b714 <_RNvNtNtCscA5RF7Ru5It_7pi_side8language5parse11parse_value.llvm.15442064674751795473+0x21c4>
    b708:	e1818300 	orr	r8, r1, r0, lsl #6
    b70c:	ea000000 	b	b714 <_RNvNtNtCscA5RF7Ru5It_7pi_side8language5parse11parse_value.llvm.15442064674751795473+0x21c4>
    b710:	e1818600 	orr	r8, r1, r0, lsl #12
    b714:	e1a00007 	mov	r0, r7
    b718:	e358002d 	cmp	r8, #45	@ 0x2d
    b71c:	1a000007 	bne	b740 <_RNvNtNtCscA5RF7Ru5It_7pi_side8language5parse11parse_value.llvm.15442064674751795473+0x21f0>
    b720:	e59d1024 	ldr	r1, [sp, #36]	@ 0x24
    b724:	e3510001 	cmp	r1, #1
    b728:	0a000002 	beq	b738 <_RNvNtNtCscA5RF7Ru5It_7pi_side8language5parse11parse_value.llvm.15442064674751795473+0x21e8>
    b72c:	e1d700d1 	ldrsb	r0, [r7, #1]
    b730:	e3700041 	cmn	r0, #65	@ 0x41
    b734:	da000238 	ble	c01c <_RNvNtNtCscA5RF7Ru5It_7pi_side8language5parse11parse_value.llvm.15442064674751795473+0x2acc>
    b738:	e2413001 	sub	r3, r1, #1
    b73c:	e2870001 	add	r0, r7, #1
    b740:	e3530002 	cmp	r3, #2
    b744:	3a00005b 	bcc	b8b8 <_RNvNtNtCscA5RF7Ru5It_7pi_side8language5parse11parse_value.llvm.15442064674751795473+0x2368>
    b748:	e5d02001 	ldrb	r2, [r0, #1]
    b74c:	e5d01000 	ldrb	r1, [r0]
    b750:	e1811402 	orr	r1, r1, r2, lsl #8
    b754:	e3a02e83 	mov	r2, #2096	@ 0x830
    b758:	e3822a07 	orr	r2, r2, #28672	@ 0x7000
    b75c:	e1510002 	cmp	r1, r2
    b760:	0a000006 	beq	b780 <_RNvNtNtCscA5RF7Ru5It_7pi_side8language5parse11parse_value.llvm.15442064674751795473+0x2230>
    b764:	e5d02001 	ldrb	r2, [r0, #1]
    b768:	e5d01000 	ldrb	r1, [r0]
    b76c:	e1811402 	orr	r1, r1, r2, lsl #8
    b770:	e3a02e83 	mov	r2, #2096	@ 0x830
    b774:	e3822a05 	orr	r2, r2, #20480	@ 0x5000
    b778:	e1510002 	cmp	r1, r2
    b77c:	1a00004d 	bne	b8b8 <_RNvNtNtCscA5RF7Ru5It_7pi_side8language5parse11parse_value.llvm.15442064674751795473+0x2368>
    b780:	e3530002 	cmp	r3, #2
    b784:	0a000002 	beq	b794 <_RNvNtNtCscA5RF7Ru5It_7pi_side8language5parse11parse_value.llvm.15442064674751795473+0x2244>
    b788:	e1d010d2 	ldrsb	r1, [r0, #2]
    b78c:	e3710040 	cmn	r1, #64	@ 0x40
    b790:	ba000257 	blt	c0f4 <_RNvNtNtCscA5RF7Ru5It_7pi_side8language5parse11parse_value.llvm.15442064674751795473+0x2ba4>
    b794:	e2801002 	add	r1, r0, #2
    b798:	e59fc9c8 	ldr	ip, [pc, #2504]	@ c168 <_RNvNtNtCscA5RF7Ru5It_7pi_side8language5parse11parse_value.llvm.15442064674751795473+0x2c18>
    b79c:	e0809003 	add	r9, r0, r3
    b7a0:	e2432002 	sub	r2, r3, #2
    b7a4:	e3a00000 	mov	r0, #0
    b7a8:	e1a07001 	mov	r7, r1
    b7ac:	e1570009 	cmp	r7, r9
    b7b0:	0a000032 	beq	b880 <_RNvNtNtCscA5RF7Ru5It_7pi_side8language5parse11parse_value.llvm.15442064674751795473+0x2330>
    b7b4:	e1a03000 	mov	r3, r0
    b7b8:	e1a00007 	mov	r0, r7
    b7bc:	e0d750d1 	ldrsb	r5, [r7], #1
    b7c0:	e3750001 	cmn	r5, #1
    b7c4:	e6ef6075 	uxtb	r6, r5
    b7c8:	ca000015 	bgt	b824 <_RNvNtNtCscA5RF7Ru5It_7pi_side8language5parse11parse_value.llvm.15442064674751795473+0x22d4>
    b7cc:	e5d05001 	ldrb	r5, [r0, #1]
    b7d0:	e206701f 	and	r7, r6, #31
    b7d4:	e35600e0 	cmp	r6, #224	@ 0xe0
    b7d8:	e205503f 	and	r5, r5, #63	@ 0x3f
    b7dc:	3a00000b 	bcc	b810 <_RNvNtNtCscA5RF7Ru5It_7pi_side8language5parse11parse_value.llvm.15442064674751795473+0x22c0>
    b7e0:	e5d04002 	ldrb	r4, [r0, #2]
    b7e4:	e35600f0 	cmp	r6, #240	@ 0xf0
    b7e8:	e204403f 	and	r4, r4, #63	@ 0x3f
    b7ec:	e1845305 	orr	r5, r4, r5, lsl #6
    b7f0:	3a000009 	bcc	b81c <_RNvNtNtCscA5RF7Ru5It_7pi_side8language5parse11parse_value.llvm.15442064674751795473+0x22cc>
    b7f4:	e5d06003 	ldrb	r6, [r0, #3]
    b7f8:	e2077007 	and	r7, r7, #7
    b7fc:	e206603f 	and	r6, r6, #63	@ 0x3f
    b800:	e1866305 	orr	r6, r6, r5, lsl #6
    b804:	e1866907 	orr	r6, r6, r7, lsl #18
    b808:	e2807004 	add	r7, r0, #4
    b80c:	ea000004 	b	b824 <_RNvNtNtCscA5RF7Ru5It_7pi_side8language5parse11parse_value.llvm.15442064674751795473+0x22d4>
    b810:	e1856307 	orr	r6, r5, r7, lsl #6
    b814:	e2807002 	add	r7, r0, #2
    b818:	ea000001 	b	b824 <_RNvNtNtCscA5RF7Ru5It_7pi_side8language5parse11parse_value.llvm.15442064674751795473+0x22d4>
    b81c:	e1856607 	orr	r6, r5, r7, lsl #12
    b820:	e2807003 	add	r7, r0, #3
    b824:	e0430000 	sub	r0, r3, r0
    b828:	e246503a 	sub	r5, r6, #58	@ 0x3a
    b82c:	e0800007 	add	r0, r0, r7
    b830:	e375000b 	cmn	r5, #11
    b834:	8affffdc 	bhi	b7ac <_RNvNtNtCscA5RF7Ru5It_7pi_side8language5parse11parse_value.llvm.15442064674751795473+0x225c>
    b838:	e006600c 	and	r6, r6, ip
    b83c:	e2466047 	sub	r6, r6, #71	@ 0x47
    b840:	e3760007 	cmn	r6, #7
    b844:	8affffd8 	bhi	b7ac <_RNvNtNtCscA5RF7Ru5It_7pi_side8language5parse11parse_value.llvm.15442064674751795473+0x225c>
    b848:	e3530000 	cmp	r3, #0
    b84c:	0a000019 	beq	b8b8 <_RNvNtNtCscA5RF7Ru5It_7pi_side8language5parse11parse_value.llvm.15442064674751795473+0x2368>
    b850:	e1520003 	cmp	r2, r3
    b854:	9a00000d 	bls	b890 <_RNvNtNtCscA5RF7Ru5It_7pi_side8language5parse11parse_value.llvm.15442064674751795473+0x2340>
    b858:	e0810003 	add	r0, r1, r3
    b85c:	e1d000d0 	ldrsb	r0, [r0]
    b860:	e3700040 	cmn	r0, #64	@ 0x40
    b864:	aa00000a 	bge	b894 <_RNvNtNtCscA5RF7Ru5It_7pi_side8language5parse11parse_value.llvm.15442064674751795473+0x2344>
    b868:	e59f0900 	ldr	r0, [pc, #2304]	@ c170 <_RNvNtNtCscA5RF7Ru5It_7pi_side8language5parse11parse_value.llvm.15442064674751795473+0x2c20>
    b86c:	e58d0000 	str	r0, [sp]
    b870:	e1a00001 	mov	r0, r1
    b874:	e1a01002 	mov	r1, r2
    b878:	e3a02000 	mov	r2, #0
    b87c:	eb005137 	bl	1fd60 <_RNvNtCs5HYdw2IoCB0_4core3str16slice_error_fail>
    b880:	e3a07000 	mov	r7, #0
    b884:	e3520000 	cmp	r2, #0
    b888:	1a000004 	bne	b8a0 <_RNvNtNtCscA5RF7Ru5It_7pi_side8language5parse11parse_value.llvm.15442064674751795473+0x2350>
    b88c:	ea000009 	b	b8b8 <_RNvNtNtCscA5RF7Ru5It_7pi_side8language5parse11parse_value.llvm.15442064674751795473+0x2368>
    b890:	1afffff4 	bne	b868 <_RNvNtNtCscA5RF7Ru5It_7pi_side8language5parse11parse_value.llvm.15442064674751795473+0x2318>
    b894:	e0427003 	sub	r7, r2, r3
    b898:	e0819003 	add	r9, r1, r3
    b89c:	e1a02003 	mov	r2, r3
    b8a0:	e28d0048 	add	r0, sp, #72	@ 0x48
    b8a4:	e3a03010 	mov	r3, #16
    b8a8:	ebfff5c1 	bl	8fb4 <_RNvMsp_NtCs5HYdw2IoCB0_4core3numl16from_ascii_radix>
    b8ac:	e5dd0048 	ldrb	r0, [sp, #72]	@ 0x48
    b8b0:	e3500001 	cmp	r0, #1
    b8b4:	1a0000e2 	bne	bc44 <_RNvNtNtCscA5RF7Ru5It_7pi_side8language5parse11parse_value.llvm.15442064674751795473+0x26f4>
    b8b8:	e59d4020 	ldr	r4, [sp, #32]
    b8bc:	e3a0002d 	mov	r0, #45	@ 0x2d
    b8c0:	e59d3024 	ldr	r3, [sp, #36]	@ 0x24
    b8c4:	e28d10e8 	add	r1, sp, #232	@ 0xe8
    b8c8:	e58d00e8 	str	r0, [sp, #232]	@ 0xe8
    b8cc:	e28d0048 	add	r0, sp, #72	@ 0x48
    b8d0:	e1a02004 	mov	r2, r4
    b8d4:	eb003c41 	bl	1a9e0 <_RINvXse_NtCsimG8iQ5CXkH_3nom8internalNCINvNtNtB8_9character8complete4charReINtNtB8_5error5ErrorB19_EE0INtB6_6ParserB19_E7processINtB6_7OutputMNtB6_4EmitNtB6_5CheckNtB6_9StreamingEECscA5RF7Ru5It_7pi_side>
    b8d8:	e59d8048 	ldr	r8, [sp, #72]	@ 0x48
    b8dc:	e3580001 	cmp	r8, #1
    b8e0:	1a00000e 	bne	b920 <_RNvNtNtCscA5RF7Ru5It_7pi_side8language5parse11parse_value.llvm.15442064674751795473+0x23d0>
    b8e4:	e5dd0054 	ldrb	r0, [sp, #84]	@ 0x54
    b8e8:	e3a01002 	mov	r1, #2
    b8ec:	e59d701c 	ldr	r7, [sp, #28]
    b8f0:	e3500038 	cmp	r0, #56	@ 0x38
    b8f4:	82401039 	subhi	r1, r0, #57	@ 0x39
    b8f8:	e6ef0071 	uxtb	r0, r1
    b8fc:	e3500000 	cmp	r0, #0
    b900:	0a000048 	beq	ba28 <_RNvNtNtCscA5RF7Ru5It_7pi_side8language5parse11parse_value.llvm.15442064674751795473+0x24d8>
    b904:	e59d3024 	ldr	r3, [sp, #36]	@ 0x24
    b908:	e3500001 	cmp	r0, #1
    b90c:	0a000005 	beq	b928 <_RNvNtNtCscA5RF7Ru5It_7pi_side8language5parse11parse_value.llvm.15442064674751795473+0x23d8>
    b910:	e28d204c 	add	r2, sp, #76	@ 0x4c
    b914:	e3a03002 	mov	r3, #2
    b918:	e8920007 	ldm	r2, {r0, r1, r2}
    b91c:	ea000043 	b	ba30 <_RNvNtNtCscA5RF7Ru5It_7pi_side8language5parse11parse_value.llvm.15442064674751795473+0x24e0>
    b920:	e59d404c 	ldr	r4, [sp, #76]	@ 0x4c
    b924:	e59d3050 	ldr	r3, [sp, #80]	@ 0x50
    b928:	e3530002 	cmp	r3, #2
    b92c:	3a000052 	bcc	ba7c <_RNvNtNtCscA5RF7Ru5It_7pi_side8language5parse11parse_value.llvm.15442064674751795473+0x252c>
    b930:	e5d42001 	ldrb	r2, [r4, #1]
    b934:	e5d41000 	ldrb	r1, [r4]
    b938:	e1811402 	orr	r1, r1, r2, lsl #8
    b93c:	e3a02e23 	mov	r2, #560	@ 0x230
    b940:	e3822a06 	orr	r2, r2, #24576	@ 0x6000
    b944:	e1510002 	cmp	r1, r2
    b948:	0a000006 	beq	b968 <_RNvNtNtCscA5RF7Ru5It_7pi_side8language5parse11parse_value.llvm.15442064674751795473+0x2418>
    b94c:	e5d42001 	ldrb	r2, [r4, #1]
    b950:	e5d41000 	ldrb	r1, [r4]
    b954:	e1811402 	orr	r1, r1, r2, lsl #8
    b958:	e3a02e23 	mov	r2, #560	@ 0x230
    b95c:	e3822901 	orr	r2, r2, #16384	@ 0x4000
    b960:	e1510002 	cmp	r1, r2
    b964:	1a000044 	bne	ba7c <_RNvNtNtCscA5RF7Ru5It_7pi_side8language5parse11parse_value.llvm.15442064674751795473+0x252c>
    b968:	e3530002 	cmp	r3, #2
    b96c:	0a000002 	beq	b97c <_RNvNtNtCscA5RF7Ru5It_7pi_side8language5parse11parse_value.llvm.15442064674751795473+0x242c>
    b970:	e1d410d2 	ldrsb	r1, [r4, #2]
    b974:	e3710040 	cmn	r1, #64	@ 0x40
    b978:	ba0001d7 	blt	c0dc <_RNvNtNtCscA5RF7Ru5It_7pi_side8language5parse11parse_value.llvm.15442064674751795473+0x2b8c>
    b97c:	e59f77e4 	ldr	r7, [pc, #2020]	@ c168 <_RNvNtNtCscA5RF7Ru5It_7pi_side8language5parse11parse_value.llvm.15442064674751795473+0x2c18>
    b980:	e2841002 	add	r1, r4, #2
    b984:	e0849003 	add	r9, r4, r3
    b988:	e2432002 	sub	r2, r3, #2
    b98c:	e287c01f 	add	ip, r7, #31
    b990:	e3a00000 	mov	r0, #0
    b994:	e1a05001 	mov	r5, r1
    b998:	ea000006 	b	b9b8 <_RNvNtNtCscA5RF7Ru5It_7pi_side8language5parse11parse_value.llvm.15442064674751795473+0x2468>
    b99c:	e1806305 	orr	r6, r0, r5, lsl #6
    b9a0:	e2875002 	add	r5, r7, #2
    b9a4:	e0430007 	sub	r0, r3, r7
    b9a8:	e006700c 	and	r7, r6, ip
    b9ac:	e0800005 	add	r0, r0, r5
    b9b0:	e3570030 	cmp	r7, #48	@ 0x30
    b9b4:	1a000025 	bne	ba50 <_RNvNtNtCscA5RF7Ru5It_7pi_side8language5parse11parse_value.llvm.15442064674751795473+0x2500>
    b9b8:	e1550009 	cmp	r5, r9
    b9bc:	0a00001f 	beq	ba40 <_RNvNtNtCscA5RF7Ru5It_7pi_side8language5parse11parse_value.llvm.15442064674751795473+0x24f0>
    b9c0:	e1a03000 	mov	r3, r0
    b9c4:	e1a07005 	mov	r7, r5
    b9c8:	e0d500d1 	ldrsb	r0, [r5], #1
    b9cc:	e3700001 	cmn	r0, #1
    b9d0:	e6ef6070 	uxtb	r6, r0
    b9d4:	cafffff2 	bgt	b9a4 <_RNvNtNtCscA5RF7Ru5It_7pi_side8language5parse11parse_value.llvm.15442064674751795473+0x2454>
    b9d8:	e5d70001 	ldrb	r0, [r7, #1]
    b9dc:	e206501f 	and	r5, r6, #31
    b9e0:	e35600e0 	cmp	r6, #224	@ 0xe0
    b9e4:	e200003f 	and	r0, r0, #63	@ 0x3f
    b9e8:	3affffeb 	bcc	b99c <_RNvNtNtCscA5RF7Ru5It_7pi_side8language5parse11parse_value.llvm.15442064674751795473+0x244c>
    b9ec:	e5d74002 	ldrb	r4, [r7, #2]
    b9f0:	e35600f0 	cmp	r6, #240	@ 0xf0
    b9f4:	e204403f 	and	r4, r4, #63	@ 0x3f
    b9f8:	e1840300 	orr	r0, r4, r0, lsl #6
    b9fc:	3a000006 	bcc	ba1c <_RNvNtNtCscA5RF7Ru5It_7pi_side8language5parse11parse_value.llvm.15442064674751795473+0x24cc>
    ba00:	e5d76003 	ldrb	r6, [r7, #3]
    ba04:	e206603f 	and	r6, r6, #63	@ 0x3f
    ba08:	e1860300 	orr	r0, r6, r0, lsl #6
    ba0c:	e2056007 	and	r6, r5, #7
    ba10:	e2875004 	add	r5, r7, #4
    ba14:	e1806906 	orr	r6, r0, r6, lsl #18
    ba18:	eaffffe1 	b	b9a4 <_RNvNtNtCscA5RF7Ru5It_7pi_side8language5parse11parse_value.llvm.15442064674751795473+0x2454>
    ba1c:	e1806605 	orr	r6, r0, r5, lsl #12
    ba20:	e2875003 	add	r5, r7, #3
    ba24:	eaffffde 	b	b9a4 <_RNvNtNtCscA5RF7Ru5It_7pi_side8language5parse11parse_value.llvm.15442064674751795473+0x2454>
    ba28:	e59d004c 	ldr	r0, [sp, #76]	@ 0x4c
    ba2c:	e3a03000 	mov	r3, #0
    ba30:	e58a300c 	str	r3, [sl, #12]
    ba34:	e58a0010 	str	r0, [sl, #16]
    ba38:	e8870006 	stm	r7, {r1, r2}
    ba3c:	eafff6d2 	b	958c <_RNvNtNtCscA5RF7Ru5It_7pi_side8language5parse11parse_value.llvm.15442064674751795473+0x3c>
    ba40:	e3a07000 	mov	r7, #0
    ba44:	e3520000 	cmp	r2, #0
    ba48:	1a000005 	bne	ba64 <_RNvNtNtCscA5RF7Ru5It_7pi_side8language5parse11parse_value.llvm.15442064674751795473+0x2514>
    ba4c:	ea00000a 	b	ba7c <_RNvNtNtCscA5RF7Ru5It_7pi_side8language5parse11parse_value.llvm.15442064674751795473+0x252c>
    ba50:	e3530000 	cmp	r3, #0
    ba54:	0a000008 	beq	ba7c <_RNvNtNtCscA5RF7Ru5It_7pi_side8language5parse11parse_value.llvm.15442064674751795473+0x252c>
    ba58:	e0427003 	sub	r7, r2, r3
    ba5c:	e0819003 	add	r9, r1, r3
    ba60:	e1a02003 	mov	r2, r3
    ba64:	e28d0048 	add	r0, sp, #72	@ 0x48
    ba68:	e3a03002 	mov	r3, #2
    ba6c:	ebfff550 	bl	8fb4 <_RNvMsp_NtCs5HYdw2IoCB0_4core3numl16from_ascii_radix>
    ba70:	e5dd0048 	ldrb	r0, [sp, #72]	@ 0x48
    ba74:	e3500001 	cmp	r0, #1
    ba78:	1a00006d 	bne	bc34 <_RNvNtNtCscA5RF7Ru5It_7pi_side8language5parse11parse_value.llvm.15442064674751795473+0x26e4>
    ba7c:	e59d4020 	ldr	r4, [sp, #32]
    ba80:	e3a0002d 	mov	r0, #45	@ 0x2d
    ba84:	e59d3024 	ldr	r3, [sp, #36]	@ 0x24
    ba88:	e28d10e8 	add	r1, sp, #232	@ 0xe8
    ba8c:	e58d00e8 	str	r0, [sp, #232]	@ 0xe8
    ba90:	e28d0048 	add	r0, sp, #72	@ 0x48
    ba94:	e1a02004 	mov	r2, r4
    ba98:	eb003bd0 	bl	1a9e0 <_RINvXse_NtCsimG8iQ5CXkH_3nom8internalNCINvNtNtB8_9character8complete4charReINtNtB8_5error5ErrorB19_EE0INtB6_6ParserB19_E7processINtB6_7OutputMNtB6_4EmitNtB6_5CheckNtB6_9StreamingEECscA5RF7Ru5It_7pi_side>
    ba9c:	e59d0048 	ldr	r0, [sp, #72]	@ 0x48
    baa0:	e3500001 	cmp	r0, #1
    baa4:	1a00000f 	bne	bae8 <_RNvNtNtCscA5RF7Ru5It_7pi_side8language5parse11parse_value.llvm.15442064674751795473+0x2598>
    baa8:	e5dd0054 	ldrb	r0, [sp, #84]	@ 0x54
    baac:	e3a01002 	mov	r1, #2
    bab0:	e59dc01c 	ldr	ip, [sp, #28]
    bab4:	e3500038 	cmp	r0, #56	@ 0x38
    bab8:	82401039 	subhi	r1, r0, #57	@ 0x39
    babc:	e6ef0071 	uxtb	r0, r1
    bac0:	e3500000 	cmp	r0, #0
    bac4:	0a000051 	beq	bc10 <_RNvNtNtCscA5RF7Ru5It_7pi_side8language5parse11parse_value.llvm.15442064674751795473+0x26c0>
    bac8:	e59d1024 	ldr	r1, [sp, #36]	@ 0x24
    bacc:	e3500001 	cmp	r0, #1
    bad0:	e1a00004 	mov	r0, r4
    bad4:	0a000006 	beq	baf4 <_RNvNtNtCscA5RF7Ru5It_7pi_side8language5parse11parse_value.llvm.15442064674751795473+0x25a4>
    bad8:	e28d304c 	add	r3, sp, #76	@ 0x4c
    badc:	e3a02002 	mov	r2, #2
    bae0:	e893000b 	ldm	r3, {r0, r1, r3}
    bae4:	ea00004b 	b	bc18 <_RNvNtNtCscA5RF7Ru5It_7pi_side8language5parse11parse_value.llvm.15442064674751795473+0x26c8>
    bae8:	e59d004c 	ldr	r0, [sp, #76]	@ 0x4c
    baec:	e59d1050 	ldr	r1, [sp, #80]	@ 0x50
    baf0:	e59dc01c 	ldr	ip, [sp, #28]
    baf4:	e0809001 	add	r9, r0, r1
    baf8:	e3a02000 	mov	r2, #0
    bafc:	e1a06000 	mov	r6, r0
    bb00:	ea000006 	b	bb20 <_RNvNtNtCscA5RF7Ru5It_7pi_side8language5parse11parse_value.llvm.15442064674751795473+0x25d0>
    bb04:	e1857306 	orr	r7, r5, r6, lsl #6
    bb08:	e2826002 	add	r6, r2, #2
    bb0c:	e0432002 	sub	r2, r3, r2
    bb10:	e247703a 	sub	r7, r7, #58	@ 0x3a
    bb14:	e0822006 	add	r2, r2, r6
    bb18:	e377000b 	cmn	r7, #11
    bb1c:	9a000020 	bls	bba4 <_RNvNtNtCscA5RF7Ru5It_7pi_side8language5parse11parse_value.llvm.15442064674751795473+0x2654>
    bb20:	e1560009 	cmp	r6, r9
    bb24:	0a000019 	beq	bb90 <_RNvNtNtCscA5RF7Ru5It_7pi_side8language5parse11parse_value.llvm.15442064674751795473+0x2640>
    bb28:	e1a03002 	mov	r3, r2
    bb2c:	e1a02006 	mov	r2, r6
    bb30:	e0d650d1 	ldrsb	r5, [r6], #1
    bb34:	e3750001 	cmn	r5, #1
    bb38:	e6ef7075 	uxtb	r7, r5
    bb3c:	cafffff2 	bgt	bb0c <_RNvNtNtCscA5RF7Ru5It_7pi_side8language5parse11parse_value.llvm.15442064674751795473+0x25bc>
    bb40:	e5d25001 	ldrb	r5, [r2, #1]
    bb44:	e207601f 	and	r6, r7, #31
    bb48:	e35700e0 	cmp	r7, #224	@ 0xe0
    bb4c:	e205503f 	and	r5, r5, #63	@ 0x3f
    bb50:	3affffeb 	bcc	bb04 <_RNvNtNtCscA5RF7Ru5It_7pi_side8language5parse11parse_value.llvm.15442064674751795473+0x25b4>
    bb54:	e5d24002 	ldrb	r4, [r2, #2]
    bb58:	e35700f0 	cmp	r7, #240	@ 0xf0
    bb5c:	e204403f 	and	r4, r4, #63	@ 0x3f
    bb60:	e1845305 	orr	r5, r4, r5, lsl #6
    bb64:	3a000006 	bcc	bb84 <_RNvNtNtCscA5RF7Ru5It_7pi_side8language5parse11parse_value.llvm.15442064674751795473+0x2634>
    bb68:	e5d27003 	ldrb	r7, [r2, #3]
    bb6c:	e2066007 	and	r6, r6, #7
    bb70:	e207703f 	and	r7, r7, #63	@ 0x3f
    bb74:	e1877305 	orr	r7, r7, r5, lsl #6
    bb78:	e1877906 	orr	r7, r7, r6, lsl #18
    bb7c:	e2826004 	add	r6, r2, #4
    bb80:	eaffffe1 	b	bb0c <_RNvNtNtCscA5RF7Ru5It_7pi_side8language5parse11parse_value.llvm.15442064674751795473+0x25bc>
    bb84:	e1857606 	orr	r7, r5, r6, lsl #12
    bb88:	e2826003 	add	r6, r2, #3
    bb8c:	eaffffde 	b	bb0c <_RNvNtNtCscA5RF7Ru5It_7pi_side8language5parse11parse_value.llvm.15442064674751795473+0x25bc>
    bb90:	e59d2024 	ldr	r2, [sp, #36]	@ 0x24
    bb94:	e3a07000 	mov	r7, #0
    bb98:	e3510000 	cmp	r1, #0
    bb9c:	1a00000b 	bne	bbd0 <_RNvNtNtCscA5RF7Ru5It_7pi_side8language5parse11parse_value.llvm.15442064674751795473+0x2680>
    bba0:	ea00003f 	b	bca4 <_RNvNtNtCscA5RF7Ru5It_7pi_side8language5parse11parse_value.llvm.15442064674751795473+0x2754>
    bba4:	e3530000 	cmp	r3, #0
    bba8:	0a00001e 	beq	bc28 <_RNvNtNtCscA5RF7Ru5It_7pi_side8language5parse11parse_value.llvm.15442064674751795473+0x26d8>
    bbac:	e1510003 	cmp	r1, r3
    bbb0:	9a000027 	bls	bc54 <_RNvNtNtCscA5RF7Ru5It_7pi_side8language5parse11parse_value.llvm.15442064674751795473+0x2704>
    bbb4:	e0802003 	add	r2, r0, r3
    bbb8:	e1d220d0 	ldrsb	r2, [r2]
    bbbc:	e3720040 	cmn	r2, #64	@ 0x40
    bbc0:	ba000024 	blt	bc58 <_RNvNtNtCscA5RF7Ru5It_7pi_side8language5parse11parse_value.llvm.15442064674751795473+0x2708>
    bbc4:	e59d2024 	ldr	r2, [sp, #36]	@ 0x24
    bbc8:	e0809003 	add	r9, r0, r3
    bbcc:	e0417003 	sub	r7, r1, r3
    bbd0:	e0523007 	subs	r3, r2, r7
    bbd4:	0a000025 	beq	bc70 <_RNvNtNtCscA5RF7Ru5It_7pi_side8language5parse11parse_value.llvm.15442064674751795473+0x2720>
    bbd8:	e59d0024 	ldr	r0, [sp, #36]	@ 0x24
    bbdc:	e1530000 	cmp	r3, r0
    bbe0:	2a000020 	bcs	bc68 <_RNvNtNtCscA5RF7Ru5It_7pi_side8language5parse11parse_value.llvm.15442064674751795473+0x2718>
    bbe4:	e59d0020 	ldr	r0, [sp, #32]
    bbe8:	e0800003 	add	r0, r0, r3
    bbec:	e1d000d0 	ldrsb	r0, [r0]
    bbf0:	e3700040 	cmn	r0, #64	@ 0x40
    bbf4:	aa00001d 	bge	bc70 <_RNvNtNtCscA5RF7Ru5It_7pi_side8language5parse11parse_value.llvm.15442064674751795473+0x2720>
    bbf8:	e59f05a4 	ldr	r0, [pc, #1444]	@ c1a4 <_RNvNtNtCscA5RF7Ru5It_7pi_side8language5parse11parse_value.llvm.15442064674751795473+0x2c54>
    bbfc:	e3a02000 	mov	r2, #0
    bc00:	e58d0000 	str	r0, [sp]
    bc04:	e59d0020 	ldr	r0, [sp, #32]
    bc08:	e59d1024 	ldr	r1, [sp, #36]	@ 0x24
    bc0c:	eb005053 	bl	1fd60 <_RNvNtCs5HYdw2IoCB0_4core3str16slice_error_fail>
    bc10:	e59d004c 	ldr	r0, [sp, #76]	@ 0x4c
    bc14:	e3a02000 	mov	r2, #0
    bc18:	e58a200c 	str	r2, [sl, #12]
    bc1c:	e58a0010 	str	r0, [sl, #16]
    bc20:	e88c000a 	stm	ip, {r1, r3}
    bc24:	eafff658 	b	958c <_RNvNtNtCscA5RF7Ru5It_7pi_side8language5parse11parse_value.llvm.15442064674751795473+0x3c>
    bc28:	e1a07001 	mov	r7, r1
    bc2c:	e59d2024 	ldr	r2, [sp, #36]	@ 0x24
    bc30:	ea00001b 	b	bca4 <_RNvNtNtCscA5RF7Ru5It_7pi_side8language5parse11parse_value.llvm.15442064674751795473+0x2754>
    bc34:	e59d004c 	ldr	r0, [sp, #76]	@ 0x4c
    bc38:	e3580000 	cmp	r8, #0
    bc3c:	02600000 	rsbeq	r0, r0, #0
    bc40:	ea00003e 	b	bd40 <_RNvNtNtCscA5RF7Ru5It_7pi_side8language5parse11parse_value.llvm.15442064674751795473+0x27f0>
    bc44:	e59d004c 	ldr	r0, [sp, #76]	@ 0x4c
    bc48:	e358002d 	cmp	r8, #45	@ 0x2d
    bc4c:	02600000 	rsbeq	r0, r0, #0
    bc50:	ea00003a 	b	bd40 <_RNvNtNtCscA5RF7Ru5It_7pi_side8language5parse11parse_value.llvm.15442064674751795473+0x27f0>
    bc54:	0affffda 	beq	bbc4 <_RNvNtNtCscA5RF7Ru5It_7pi_side8language5parse11parse_value.llvm.15442064674751795473+0x2674>
    bc58:	e59f2510 	ldr	r2, [pc, #1296]	@ c170 <_RNvNtNtCscA5RF7Ru5It_7pi_side8language5parse11parse_value.llvm.15442064674751795473+0x2c20>
    bc5c:	e58d2000 	str	r2, [sp]
    bc60:	e3a02000 	mov	r2, #0
    bc64:	eb00503d 	bl	1fd60 <_RNvNtCs5HYdw2IoCB0_4core3str16slice_error_fail>
    bc68:	e3570000 	cmp	r7, #0
    bc6c:	1affffe1 	bne	bbf8 <_RNvNtNtCscA5RF7Ru5It_7pi_side8language5parse11parse_value.llvm.15442064674751795473+0x26a8>
    bc70:	e59d4020 	ldr	r4, [sp, #32]
    bc74:	e28d0048 	add	r0, sp, #72	@ 0x48
    bc78:	e1a02003 	mov	r2, r3
    bc7c:	e3a0300a 	mov	r3, #10
    bc80:	e1a01004 	mov	r1, r4
    bc84:	ebfff4ca 	bl	8fb4 <_RNvMsp_NtCs5HYdw2IoCB0_4core3numl16from_ascii_radix>
    bc88:	e5dd0048 	ldrb	r0, [sp, #72]	@ 0x48
    bc8c:	e3500000 	cmp	r0, #0
    bc90:	0a000029 	beq	bd3c <_RNvNtNtCscA5RF7Ru5It_7pi_side8language5parse11parse_value.llvm.15442064674751795473+0x27ec>
    bc94:	e59d2024 	ldr	r2, [sp, #36]	@ 0x24
    bc98:	e1a00004 	mov	r0, r4
    bc9c:	e59dc01c 	ldr	ip, [sp, #28]
    bca0:	e1a07002 	mov	r7, r2
    bca4:	e59d4020 	ldr	r4, [sp, #32]
    bca8:	e3a01010 	mov	r1, #16
    bcac:	e58c1004 	str	r1, [ip, #4]
    bcb0:	e3a01001 	mov	r1, #1
    bcb4:	e58a0010 	str	r0, [sl, #16]
    bcb8:	e3a000ff 	mov	r0, #255	@ 0xff
    bcbc:	e58a100c 	str	r1, [sl, #12]
    bcc0:	e1a01004 	mov	r1, r4
    bcc4:	e5ca0008 	strb	r0, [sl, #8]
    bcc8:	e1a0000a 	mov	r0, sl
    bccc:	e58c7000 	str	r7, [ip]
    bcd0:	ebfff16b 	bl	8284 <_RINvXse_NtCsimG8iQ5CXkH_3nom8internalNvNtNtCscA5RF7Ru5It_7pi_side8language5parse14parse_operatorINtB6_6ParserReE7processINtB6_7OutputMNtB6_4EmitB28_NtB6_9StreamingEEBF_>
    bcd4:	e5da0008 	ldrb	r0, [sl, #8]
    bcd8:	e59d2024 	ldr	r2, [sp, #36]	@ 0x24
    bcdc:	e35000ff 	cmp	r0, #255	@ 0xff
    bce0:	059a000c 	ldreq	r0, [sl, #12]
    bce4:	03500001 	cmpeq	r0, #1
    bce8:	1afff629 	bne	9594 <_RNvNtNtCscA5RF7Ru5It_7pi_side8language5parse11parse_value.llvm.15442064674751795473+0x44>
    bcec:	e1a0000a 	mov	r0, sl
    bcf0:	e1a01004 	mov	r1, r4
    bcf4:	ebfff0d8 	bl	805c <_RINvXse_NtCsimG8iQ5CXkH_3nom8internalNvNtNtCscA5RF7Ru5It_7pi_side8language5parse11parse_minusINtB6_6ParserReE7processINtB6_7OutputMNtB6_4EmitB25_NtB6_9StreamingEEBF_>
    bcf8:	e5da0008 	ldrb	r0, [sl, #8]
    bcfc:	e59d2024 	ldr	r2, [sp, #36]	@ 0x24
    bd00:	e35000ff 	cmp	r0, #255	@ 0xff
    bd04:	059a000c 	ldreq	r0, [sl, #12]
    bd08:	03500001 	cmpeq	r0, #1
    bd0c:	1afff620 	bne	9594 <_RNvNtNtCscA5RF7Ru5It_7pi_side8language5parse11parse_value.llvm.15442064674751795473+0x44>
    bd10:	e1a0000a 	mov	r0, sl
    bd14:	e1a01004 	mov	r1, r4
    bd18:	ebfff2fe 	bl	8918 <_RINvXse_NtCsimG8iQ5CXkH_3nom8internalNvNtNtCscA5RF7Ru5It_7pi_side8language5parse16parse_identifierINtB6_6ParserReE7processINtB6_7OutputMNtB6_4EmitB2a_NtB6_9StreamingEEBF_>
    bd1c:	e5da0008 	ldrb	r0, [sl, #8]
    bd20:	e35000ff 	cmp	r0, #255	@ 0xff
    bd24:	059a000c 	ldreq	r0, [sl, #12]
    bd28:	03500001 	cmpeq	r0, #1
    bd2c:	1afff618 	bne	9594 <_RNvNtNtCscA5RF7Ru5It_7pi_side8language5parse11parse_value.llvm.15442064674751795473+0x44>
    bd30:	e3a00001 	mov	r0, #1
    bd34:	e58a000c 	str	r0, [sl, #12]
    bd38:	eafff613 	b	958c <_RNvNtNtCscA5RF7Ru5It_7pi_side8language5parse11parse_value.llvm.15442064674751795473+0x3c>
    bd3c:	e59d004c 	ldr	r0, [sp, #76]	@ 0x4c
    bd40:	e59d201c 	ldr	r2, [sp, #28]
    bd44:	e3a01000 	mov	r1, #0
    bd48:	e58a0010 	str	r0, [sl, #16]
    bd4c:	e3a00006 	mov	r0, #6
    bd50:	e58a100c 	str	r1, [sl, #12]
    bd54:	e5821000 	str	r1, [r2]
    bd58:	e5821004 	str	r1, [r2, #4]
    bd5c:	e58a9000 	str	r9, [sl]
    bd60:	e58a7004 	str	r7, [sl, #4]
    bd64:	eafff609 	b	9590 <_RNvNtNtCscA5RF7Ru5It_7pi_side8language5parse11parse_value.llvm.15442064674751795473+0x40>
    bd68:	e59db024 	ldr	fp, [sp, #36]	@ 0x24
    bd6c:	e3a05005 	mov	r5, #5
    bd70:	e58d40f4 	str	r4, [sp, #244]	@ 0xf4
    bd74:	e59da018 	ldr	sl, [sp, #24]
    bd78:	e28d00e8 	add	r0, sp, #232	@ 0xe8
    bd7c:	eb0023a2 	bl	14c0c <_RNvXse_NtNtCs3SSNe1yeMmP_5alloc3vec9into_iterINtB5_8IntoIterNtNtNtCscA5RF7Ru5It_7pi_side8language3ast5ValueENtNtNtCs5HYdw2IoCB0_4core3ops4drop4Drop4dropB12_>
    bd80:	e59de01c 	ldr	lr, [sp, #28]
    bd84:	eafffb06 	b	a9a4 <_RNvNtNtCscA5RF7Ru5It_7pi_side8language5parse11parse_value.llvm.15442064674751795473+0x1454>
    bd88:	e59d6010 	ldr	r6, [sp, #16]
    bd8c:	e3a07024 	mov	r7, #36	@ 0x24
    bd90:	e59d0014 	ldr	r0, [sp, #20]
    bd94:	eafffe3d 	b	b690 <_RNvNtNtCscA5RF7Ru5It_7pi_side8language5parse11parse_value.llvm.15442064674751795473+0x2140>
    bd98:	e28d403c 	add	r4, sp, #60	@ 0x3c
    bd9c:	e59f33e0 	ldr	r3, [pc, #992]	@ c184 <_RNvNtNtCscA5RF7Ru5It_7pi_side8language5parse11parse_value.llvm.15442064674751795473+0x2c34>
    bda0:	e28d0078 	add	r0, sp, #120	@ 0x78
    bda4:	e3a02000 	mov	r2, #0
    bda8:	e1a01004 	mov	r1, r4
    bdac:	eb00332e 	bl	18a6c <_RNvMs_NtCs3SSNe1yeMmP_5alloc3vecINtB4_3VecNtNtNtCscA5RF7Ru5It_7pi_side8language3ast5ValueE6removeBK_>
    bdb0:	e59f33d0 	ldr	r3, [pc, #976]	@ c188 <_RNvNtNtCscA5RF7Ru5It_7pi_side8language5parse11parse_value.llvm.15442064674751795473+0x2c38>
    bdb4:	e28d00a0 	add	r0, sp, #160	@ 0xa0
    bdb8:	e1a01004 	mov	r1, r4
    bdbc:	e3a02000 	mov	r2, #0
    bdc0:	eb003329 	bl	18a6c <_RNvMs_NtCs3SSNe1yeMmP_5alloc3vecINtB4_3VecNtNtNtCscA5RF7Ru5It_7pi_side8language3ast5ValueE6removeBK_>
    bdc4:	e5dd0078 	ldrb	r0, [sp, #120]	@ 0x78
    bdc8:	e3500004 	cmp	r0, #4
    bdcc:	1a0000b0 	bne	c094 <_RNvNtNtCscA5RF7Ru5It_7pi_side8language5parse11parse_value.llvm.15442064674751795473+0x2b44>
    bdd0:	e59d007c 	ldr	r0, [sp, #124]	@ 0x7c
    bdd4:	e58d009c 	str	r0, [sp, #156]	@ 0x9c
    bdd8:	e280700c 	add	r7, r0, #12
    bddc:	e5905008 	ldr	r5, [r0, #8]
    bde0:	e1a0a000 	mov	sl, r0
    bde4:	e1a01007 	mov	r1, r7
    bde8:	e2458001 	sub	r8, r5, #1
    bdec:	e1a02005 	mov	r2, r5
    bdf0:	e1a00008 	mov	r0, r8
    bdf4:	eb000192 	bl	c444 <_RNvXs5_NtNtCs5HYdw2IoCB0_4core3str6traitsINtNtNtB9_3ops5range5RangejEINtNtNtB9_5slice5index10SliceIndexeE3get>
    bdf8:	e3500000 	cmp	r0, #0
    bdfc:	0a0000a8 	beq	c0a4 <_RNvNtNtCscA5RF7Ru5It_7pi_side8language5parse11parse_value.llvm.15442064674751795473+0x2b54>
    be00:	e1a04001 	mov	r4, r1
    be04:	e3510000 	cmp	r1, #0
    be08:	0a000019 	beq	be74 <_RNvNtNtCscA5RF7Ru5It_7pi_side8language5parse11parse_value.llvm.15442064674751795473+0x2924>
    be0c:	e2406001 	sub	r6, r0, #1
    be10:	e28d50e8 	add	r5, sp, #232	@ 0xe8
    be14:	e28d70a0 	add	r7, sp, #160	@ 0xa0
    be18:	e28d80c4 	add	r8, sp, #196	@ 0xc4
    be1c:	e3a0b003 	mov	fp, #3
    be20:	e3a09000 	mov	r9, #0
    be24:	e7d60004 	ldrb	r0, [r6, r4]
    be28:	e28d2048 	add	r2, sp, #72	@ 0x48
    be2c:	e5cdb0c4 	strb	fp, [sp, #196]	@ 0xc4
    be30:	e5cd9048 	strb	r9, [sp, #72]	@ 0x48
    be34:	e2401041 	sub	r1, r0, #65	@ 0x41
    be38:	e351001a 	cmp	r1, #26
    be3c:	e1a01007 	mov	r1, r7
    be40:	33800020 	orrcc	r0, r0, #32
    be44:	e3500061 	cmp	r0, #97	@ 0x61
    be48:	e3a00007 	mov	r0, #7
    be4c:	03a00006 	moveq	r0, #6
    be50:	e5cd00c5 	strb	r0, [sp, #197]	@ 0xc5
    be54:	e1a00005 	mov	r0, r5
    be58:	eb003f19 	bl	1bac4 <_RNvMNtNtCscA5RF7Ru5It_7pi_side8language3astNtB2_5Value4cons>
    be5c:	e1a00007 	mov	r0, r7
    be60:	e1a01008 	mov	r1, r8
    be64:	e1a02005 	mov	r2, r5
    be68:	eb003f15 	bl	1bac4 <_RNvMNtNtCscA5RF7Ru5It_7pi_side8language3astNtB2_5Value4cons>
    be6c:	e2544001 	subs	r4, r4, #1
    be70:	1affffeb 	bne	be24 <_RNvNtNtCscA5RF7Ru5It_7pi_side8language5parse11parse_value.llvm.15442064674751795473+0x28d4>
    be74:	e59a0000 	ldr	r0, [sl]
    be78:	e59d70b8 	ldr	r7, [sp, #184]	@ 0xb8
    be7c:	e2500001 	subs	r0, r0, #1
    be80:	e58d702c 	str	r7, [sp, #44]	@ 0x2c
    be84:	e5dd50a0 	ldrb	r5, [sp, #160]	@ 0xa0
    be88:	e5dd20a2 	ldrb	r2, [sp, #162]	@ 0xa2
    be8c:	e59d80b0 	ldr	r8, [sp, #176]	@ 0xb0
    be90:	e59db0a8 	ldr	fp, [sp, #168]	@ 0xa8
    be94:	e59d70a4 	ldr	r7, [sp, #164]	@ 0xa4
    be98:	e58a0000 	str	r0, [sl]
    be9c:	e59d00ac 	ldr	r0, [sp, #172]	@ 0xac
    bea0:	e5dd10a1 	ldrb	r1, [sp, #161]	@ 0xa1
    bea4:	e5dd30a3 	ldrb	r3, [sp, #163]	@ 0xa3
    bea8:	e59d60b4 	ldr	r6, [sp, #180]	@ 0xb4
    beac:	e59d40bc 	ldr	r4, [sp, #188]	@ 0xbc
    beb0:	e58d0014 	str	r0, [sp, #20]
    beb4:	e59d00c0 	ldr	r0, [sp, #192]	@ 0xc0
    beb8:	e58d0034 	str	r0, [sp, #52]	@ 0x34
    bebc:	e1810402 	orr	r0, r1, r2, lsl #8
    bec0:	e5cd303a 	strb	r3, [sp, #58]	@ 0x3a
    bec4:	e58d6028 	str	r6, [sp, #40]	@ 0x28
    bec8:	e58d4030 	str	r4, [sp, #48]	@ 0x30
    becc:	e1cd03b8 	strh	r0, [sp, #56]	@ 0x38
    bed0:	1a000001 	bne	bedc <_RNvNtNtCscA5RF7Ru5It_7pi_side8language5parse11parse_value.llvm.15442064674751795473+0x298c>
    bed4:	e28d009c 	add	r0, sp, #156	@ 0x9c
    bed8:	eb00326e 	bl	18898 <_RNvMs6_NtCs3SSNe1yeMmP_5alloc2rcINtB5_2RcINtNtCs4g8OheCjupP_8heapless6string11StringInnerjINtNtNtBI_3vec7storage15VecStorageInnerAINtNtNtCs5HYdw2IoCB0_4core3mem12maybe_uninit11MaybeUninithEj20_EEE9drop_slowCscA5RF7Ru5It_7pi_side>
    bedc:	e59da018 	ldr	sl, [sp, #24]
    bee0:	e1a00428 	lsr	r0, r8, #8
    bee4:	e59d9020 	ldr	r9, [sp, #32]
    bee8:	e58d0010 	str	r0, [sp, #16]
    beec:	e59d6044 	ldr	r6, [sp, #68]	@ 0x44
    bef0:	e3560000 	cmp	r6, #0
    bef4:	1afffa6a 	bne	a8a4 <_RNvNtNtCscA5RF7Ru5It_7pi_side8language5parse11parse_value.llvm.15442064674751795473+0x1354>
    bef8:	eafffa6f 	b	a8bc <_RNvNtNtCscA5RF7Ru5It_7pi_side8language5parse11parse_value.llvm.15442064674751795473+0x136c>
    befc:	e3a00004 	mov	r0, #4
    bf00:	e3a0102c 	mov	r1, #44	@ 0x2c
    bf04:	eb004636 	bl	1d7e4 <_RNvNtCs3SSNe1yeMmP_5alloc5alloc18handle_alloc_error>
    bf08:	e5dc1003 	ldrb	r1, [ip, #3]
    bf0c:	e1a0a007 	mov	sl, r7
    bf10:	e59de01c 	ldr	lr, [sp, #28]
    bf14:	e2412041 	sub	r2, r1, #65	@ 0x41
    bf18:	e2410030 	sub	r0, r1, #48	@ 0x30
    bf1c:	e3c22020 	bic	r2, r2, #32
    bf20:	e3510039 	cmp	r1, #57	@ 0x39
    bf24:	e59d9020 	ldr	r9, [sp, #32]
    bf28:	8282000a 	addhi	r0, r2, #10
    bf2c:	e350000f 	cmp	r0, #15
    bf30:	8afffd5a 	bhi	b4a0 <_RNvNtNtCscA5RF7Ru5It_7pi_side8language5parse11parse_value.llvm.15442064674751795473+0x1f50>
    bf34:	e1806206 	orr	r6, r0, r6, lsl #4
    bf38:	e3530004 	cmp	r3, #4
    bf3c:	0afffd40 	beq	b444 <_RNvNtNtCscA5RF7Ru5It_7pi_side8language5parse11parse_value.llvm.15442064674751795473+0x1ef4>
    bf40:	e5dc1004 	ldrb	r1, [ip, #4]
    bf44:	e1a0a007 	mov	sl, r7
    bf48:	e59de01c 	ldr	lr, [sp, #28]
    bf4c:	e2412041 	sub	r2, r1, #65	@ 0x41
    bf50:	e2410030 	sub	r0, r1, #48	@ 0x30
    bf54:	e3c22020 	bic	r2, r2, #32
    bf58:	e3510039 	cmp	r1, #57	@ 0x39
    bf5c:	e59d9020 	ldr	r9, [sp, #32]
    bf60:	8282000a 	addhi	r0, r2, #10
    bf64:	e350000f 	cmp	r0, #15
    bf68:	8afffd4c 	bhi	b4a0 <_RNvNtNtCscA5RF7Ru5It_7pi_side8language5parse11parse_value.llvm.15442064674751795473+0x1f50>
    bf6c:	e1806206 	orr	r6, r0, r6, lsl #4
    bf70:	e3530005 	cmp	r3, #5
    bf74:	0afffd32 	beq	b444 <_RNvNtNtCscA5RF7Ru5It_7pi_side8language5parse11parse_value.llvm.15442064674751795473+0x1ef4>
    bf78:	e5dc1005 	ldrb	r1, [ip, #5]
    bf7c:	e1a0a007 	mov	sl, r7
    bf80:	e59de01c 	ldr	lr, [sp, #28]
    bf84:	e2412041 	sub	r2, r1, #65	@ 0x41
    bf88:	e2410030 	sub	r0, r1, #48	@ 0x30
    bf8c:	e3c22020 	bic	r2, r2, #32
    bf90:	e3510039 	cmp	r1, #57	@ 0x39
    bf94:	e59d9020 	ldr	r9, [sp, #32]
    bf98:	8282000a 	addhi	r0, r2, #10
    bf9c:	e350000f 	cmp	r0, #15
    bfa0:	8afffd3e 	bhi	b4a0 <_RNvNtNtCscA5RF7Ru5It_7pi_side8language5parse11parse_value.llvm.15442064674751795473+0x1f50>
    bfa4:	e1806206 	orr	r6, r0, r6, lsl #4
    bfa8:	e3530006 	cmp	r3, #6
    bfac:	0afffd24 	beq	b444 <_RNvNtNtCscA5RF7Ru5It_7pi_side8language5parse11parse_value.llvm.15442064674751795473+0x1ef4>
    bfb0:	e5dc1006 	ldrb	r1, [ip, #6]
    bfb4:	e1a0a007 	mov	sl, r7
    bfb8:	e59de01c 	ldr	lr, [sp, #28]
    bfbc:	e2412041 	sub	r2, r1, #65	@ 0x41
    bfc0:	e2410030 	sub	r0, r1, #48	@ 0x30
    bfc4:	e3c22020 	bic	r2, r2, #32
    bfc8:	e3510039 	cmp	r1, #57	@ 0x39
    bfcc:	e59d9020 	ldr	r9, [sp, #32]
    bfd0:	8282000a 	addhi	r0, r2, #10
    bfd4:	e350000f 	cmp	r0, #15
    bfd8:	8afffd30 	bhi	b4a0 <_RNvNtNtCscA5RF7Ru5It_7pi_side8language5parse11parse_value.llvm.15442064674751795473+0x1f50>
    bfdc:	e1806206 	orr	r6, r0, r6, lsl #4
    bfe0:	e3530007 	cmp	r3, #7
    bfe4:	0afffd16 	beq	b444 <_RNvNtNtCscA5RF7Ru5It_7pi_side8language5parse11parse_value.llvm.15442064674751795473+0x1ef4>
    bfe8:	e5dc1007 	ldrb	r1, [ip, #7]
    bfec:	e1a0a007 	mov	sl, r7
    bff0:	e59de01c 	ldr	lr, [sp, #28]
    bff4:	e2412041 	sub	r2, r1, #65	@ 0x41
    bff8:	e2410030 	sub	r0, r1, #48	@ 0x30
    bffc:	e3c22020 	bic	r2, r2, #32
    c000:	e3510039 	cmp	r1, #57	@ 0x39
    c004:	e59d9020 	ldr	r9, [sp, #32]
    c008:	8282000a 	addhi	r0, r2, #10
    c00c:	e350000f 	cmp	r0, #15
    c010:	8afffd22 	bhi	b4a0 <_RNvNtNtCscA5RF7Ru5It_7pi_side8language5parse11parse_value.llvm.15442064674751795473+0x1f50>
    c014:	e1806206 	orr	r6, r0, r6, lsl #4
    c018:	eafffcbd 	b	b314 <_RNvNtNtCscA5RF7Ru5It_7pi_side8language5parse11parse_value.llvm.15442064674751795473+0x1dc4>
    c01c:	e59f0174 	ldr	r0, [pc, #372]	@ c198 <_RNvNtNtCscA5RF7Ru5It_7pi_side8language5parse11parse_value.llvm.15442064674751795473+0x2c48>
    c020:	e58d0000 	str	r0, [sp]
    c024:	e1a00007 	mov	r0, r7
    c028:	e3a02001 	mov	r2, #1
    c02c:	e1a03001 	mov	r3, r1
    c030:	eb004f4a 	bl	1fd60 <_RNvNtCs5HYdw2IoCB0_4core3str16slice_error_fail>
    c034:	e59f0124 	ldr	r0, [pc, #292]	@ c160 <_RNvNtNtCscA5RF7Ru5It_7pi_side8language5parse11parse_value.llvm.15442064674751795473+0x2c10>
    c038:	e1a01005 	mov	r1, r5
    c03c:	e58d0000 	str	r0, [sp]
    c040:	e1a00007 	mov	r0, r7
    c044:	e1a03005 	mov	r3, r5
    c048:	eb004f44 	bl	1fd60 <_RNvNtCs5HYdw2IoCB0_4core3str16slice_error_fail>
    c04c:	e59f0108 	ldr	r0, [pc, #264]	@ c15c <_RNvNtNtCscA5RF7Ru5It_7pi_side8language5parse11parse_value.llvm.15442064674751795473+0x2c0c>
    c050:	e58d0000 	str	r0, [sp]
    c054:	e1a00009 	mov	r0, r9
    c058:	e1a01003 	mov	r1, r3
    c05c:	e3a02001 	mov	r2, #1
    c060:	eb004f3e 	bl	1fd60 <_RNvNtCs5HYdw2IoCB0_4core3str16slice_error_fail>
    c064:	e59f10f0 	ldr	r1, [pc, #240]	@ c15c <_RNvNtNtCscA5RF7Ru5It_7pi_side8language5parse11parse_value.llvm.15442064674751795473+0x2c0c>
    c068:	e58d1000 	str	r1, [sp]
    c06c:	e1a01003 	mov	r1, r3
    c070:	e3a02001 	mov	r2, #1
    c074:	eb004f39 	bl	1fd60 <_RNvNtCs5HYdw2IoCB0_4core3str16slice_error_fail>
    c078:	e59f00dc 	ldr	r0, [pc, #220]	@ c15c <_RNvNtNtCscA5RF7Ru5It_7pi_side8language5parse11parse_value.llvm.15442064674751795473+0x2c0c>
    c07c:	e58d0000 	str	r0, [sp]
    c080:	e59d0020 	ldr	r0, [sp, #32]
    c084:	e59d1024 	ldr	r1, [sp, #36]	@ 0x24
    c088:	e3a02001 	mov	r2, #1
    c08c:	e1a03001 	mov	r3, r1
    c090:	eb004f32 	bl	1fd60 <_RNvNtCs5HYdw2IoCB0_4core3str16slice_error_fail>
    c094:	e59f00f0 	ldr	r0, [pc, #240]	@ c18c <_RNvNtNtCscA5RF7Ru5It_7pi_side8language5parse11parse_value.llvm.15442064674751795473+0x2c3c>
    c098:	e3a01028 	mov	r1, #40	@ 0x28
    c09c:	e59f20ec 	ldr	r2, [pc, #236]	@ c190 <_RNvNtNtCscA5RF7Ru5It_7pi_side8language5parse11parse_value.llvm.15442064674751795473+0x2c40>
    c0a0:	eb005031 	bl	2016c <_RNvNtCs5HYdw2IoCB0_4core9panicking5panic>
    c0a4:	e59f00e8 	ldr	r0, [pc, #232]	@ c194 <_RNvNtNtCscA5RF7Ru5It_7pi_side8language5parse11parse_value.llvm.15442064674751795473+0x2c44>
    c0a8:	e1a01005 	mov	r1, r5
    c0ac:	e58d0000 	str	r0, [sp]
    c0b0:	e1a00007 	mov	r0, r7
    c0b4:	e3a02001 	mov	r2, #1
    c0b8:	e1a03008 	mov	r3, r8
    c0bc:	eb004f27 	bl	1fd60 <_RNvNtCs5HYdw2IoCB0_4core3str16slice_error_fail>
    c0c0:	e59f00a4 	ldr	r0, [pc, #164]	@ c16c <_RNvNtNtCscA5RF7Ru5It_7pi_side8language5parse11parse_value.llvm.15442064674751795473+0x2c1c>
    c0c4:	ea000012 	b	c114 <_RNvNtNtCscA5RF7Ru5It_7pi_side8language5parse11parse_value.llvm.15442064674751795473+0x2bc4>
    c0c8:	e59f00a0 	ldr	r0, [pc, #160]	@ c170 <_RNvNtNtCscA5RF7Ru5It_7pi_side8language5parse11parse_value.llvm.15442064674751795473+0x2c20>
    c0cc:	e3a02000 	mov	r2, #0
    c0d0:	e58d0000 	str	r0, [sp]
    c0d4:	e1a0000c 	mov	r0, ip
    c0d8:	eb004f20 	bl	1fd60 <_RNvNtCs5HYdw2IoCB0_4core3str16slice_error_fail>
    c0dc:	e59f10bc 	ldr	r1, [pc, #188]	@ c1a0 <_RNvNtNtCscA5RF7Ru5It_7pi_side8language5parse11parse_value.llvm.15442064674751795473+0x2c50>
    c0e0:	e1a00004 	mov	r0, r4
    c0e4:	e58d1000 	str	r1, [sp]
    c0e8:	e1a01003 	mov	r1, r3
    c0ec:	e3a02002 	mov	r2, #2
    c0f0:	eb004f1a 	bl	1fd60 <_RNvNtCs5HYdw2IoCB0_4core3str16slice_error_fail>
    c0f4:	e59f10a0 	ldr	r1, [pc, #160]	@ c19c <_RNvNtNtCscA5RF7Ru5It_7pi_side8language5parse11parse_value.llvm.15442064674751795473+0x2c4c>
    c0f8:	e58d1000 	str	r1, [sp]
    c0fc:	e1a01003 	mov	r1, r3
    c100:	e3a02002 	mov	r2, #2
    c104:	eb004f15 	bl	1fd60 <_RNvNtCs5HYdw2IoCB0_4core3str16slice_error_fail>
    c108:	e59f0068 	ldr	r0, [pc, #104]	@ c178 <_RNvNtNtCscA5RF7Ru5It_7pi_side8language5parse11parse_value.llvm.15442064674751795473+0x2c28>
    c10c:	ea00000d 	b	c148 <_RNvNtNtCscA5RF7Ru5It_7pi_side8language5parse11parse_value.llvm.15442064674751795473+0x2bf8>
    c110:	e59f004c 	ldr	r0, [pc, #76]	@ c164 <_RNvNtNtCscA5RF7Ru5It_7pi_side8language5parse11parse_value.llvm.15442064674751795473+0x2c14>
    c114:	e58d0000 	str	r0, [sp]
    c118:	e1a00009 	mov	r0, r9
    c11c:	e1a01007 	mov	r1, r7
    c120:	e3a02002 	mov	r2, #2
    c124:	e1a03007 	mov	r3, r7
    c128:	eb004f0c 	bl	1fd60 <_RNvNtCs5HYdw2IoCB0_4core3str16slice_error_fail>
    c12c:	e59f004c 	ldr	r0, [pc, #76]	@ c180 <_RNvNtNtCscA5RF7Ru5It_7pi_side8language5parse11parse_value.llvm.15442064674751795473+0x2c30>
    c130:	e58d0000 	str	r0, [sp]
    c134:	e1a00001 	mov	r0, r1
    c138:	e1a01003 	mov	r1, r3
    c13c:	e3a02001 	mov	r2, #1
    c140:	eb004f06 	bl	1fd60 <_RNvNtCs5HYdw2IoCB0_4core3str16slice_error_fail>
    c144:	e59f0028 	ldr	r0, [pc, #40]	@ c174 <_RNvNtNtCscA5RF7Ru5It_7pi_side8language5parse11parse_value.llvm.15442064674751795473+0x2c24>
    c148:	e58d0000 	str	r0, [sp]
    c14c:	e1a0000c 	mov	r0, ip
    c150:	e3a02002 	mov	r2, #2
    c154:	e1a03001 	mov	r3, r1
    c158:	eb004f00 	bl	1fd60 <_RNvNtCs5HYdw2IoCB0_4core3str16slice_error_fail>
    c15c:	000224fc 	.word	0x000224fc
    c160:	0002241c 	.word	0x0002241c
    c164:	0002242c 	.word	0x0002242c
    c168:	001fffdf 	.word	0x001fffdf
    c16c:	0002243c 	.word	0x0002243c
    c170:	00022394 	.word	0x00022394
    c174:	000224ac 	.word	0x000224ac
    c178:	000224bc 	.word	0x000224bc
    c17c:	40005001 	.word	0x40005001
    c180:	000223a4 	.word	0x000223a4
    c184:	000223b4 	.word	0x000223b4
    c188:	000223c4 	.word	0x000223c4
    c18c:	000223e4 	.word	0x000223e4
    c190:	0002240c 	.word	0x0002240c
    c194:	000223d4 	.word	0x000223d4
    c198:	03c4f0e8 	.word	0x03c4f0e8
    c19c:	000224dc 	.word	0x000224dc
    c1a0:	000224cc 	.word	0x000224cc
    c1a4:	0002244c 	.word	0x0002244c

0000c1a8 <_RNvNtNtCscA5RF7Ru5It_7pi_side8language5parse2ws>:
    c1a8:	e92d4ff0 	push	{r4, r5, r6, r7, r8, r9, sl, fp, lr}
    c1ac:	e24dd00c 	sub	sp, sp, #12
    c1b0:	e1a0a001 	mov	sl, r1
    c1b4:	e3520000 	cmp	r2, #0
    c1b8:	0a00008a 	beq	c3e8 <_RNvNtNtCscA5RF7Ru5It_7pi_side8language5parse2ws+0x240>
    c1bc:	e3a08013 	mov	r8, #19
    c1c0:	e08ac002 	add	ip, sl, r2
    c1c4:	e3888502 	orr	r8, r8, #8388608	@ 0x800000
    c1c8:	e3a09001 	mov	r9, #1
    c1cc:	e3a03000 	mov	r3, #0
    c1d0:	e1a0100a 	mov	r1, sl
    c1d4:	e1a0400a 	mov	r4, sl
    c1d8:	e0d450d1 	ldrsb	r5, [r4], #1
    c1dc:	e3750001 	cmn	r5, #1
    c1e0:	e6ef7075 	uxtb	r7, r5
    c1e4:	da00000a 	ble	c214 <_RNvNtNtCscA5RF7Ru5It_7pi_side8language5parse2ws+0x6c>
    c1e8:	e2477009 	sub	r7, r7, #9
    c1ec:	e3570017 	cmp	r7, #23
    c1f0:	8a000026 	bhi	c290 <_RNvNtNtCscA5RF7Ru5It_7pi_side8language5parse2ws+0xe8>
    c1f4:	e1180719 	tst	r8, r9, lsl r7
    c1f8:	0a000024 	beq	c290 <_RNvNtNtCscA5RF7Ru5It_7pi_side8language5parse2ws+0xe8>
    c1fc:	e0431001 	sub	r1, r3, r1
    c200:	e154000c 	cmp	r4, ip
    c204:	e0813004 	add	r3, r1, r4
    c208:	e1a01004 	mov	r1, r4
    c20c:	1afffff1 	bne	c1d8 <_RNvNtNtCscA5RF7Ru5It_7pi_side8language5parse2ws+0x30>
    c210:	ea000074 	b	c3e8 <_RNvNtNtCscA5RF7Ru5It_7pi_side8language5parse2ws+0x240>
    c214:	e5d15001 	ldrb	r5, [r1, #1]
    c218:	e207601f 	and	r6, r7, #31
    c21c:	e35700e0 	cmp	r7, #224	@ 0xe0
    c220:	e205503f 	and	r5, r5, #63	@ 0x3f
    c224:	3a00000e 	bcc	c264 <_RNvNtNtCscA5RF7Ru5It_7pi_side8language5parse2ws+0xbc>
    c228:	e5d14002 	ldrb	r4, [r1, #2]
    c22c:	e35700f0 	cmp	r7, #240	@ 0xf0
    c230:	e204403f 	and	r4, r4, #63	@ 0x3f
    c234:	e1845305 	orr	r5, r4, r5, lsl #6
    c238:	3a00000f 	bcc	c27c <_RNvNtNtCscA5RF7Ru5It_7pi_side8language5parse2ws+0xd4>
    c23c:	e5d17003 	ldrb	r7, [r1, #3]
    c240:	e2066007 	and	r6, r6, #7
    c244:	e2814004 	add	r4, r1, #4
    c248:	e207703f 	and	r7, r7, #63	@ 0x3f
    c24c:	e1877305 	orr	r7, r7, r5, lsl #6
    c250:	e1877906 	orr	r7, r7, r6, lsl #18
    c254:	e2477009 	sub	r7, r7, #9
    c258:	e3570017 	cmp	r7, #23
    c25c:	9affffe4 	bls	c1f4 <_RNvNtNtCscA5RF7Ru5It_7pi_side8language5parse2ws+0x4c>
    c260:	ea00000a 	b	c290 <_RNvNtNtCscA5RF7Ru5It_7pi_side8language5parse2ws+0xe8>
    c264:	e1857306 	orr	r7, r5, r6, lsl #6
    c268:	e2814002 	add	r4, r1, #2
    c26c:	e2477009 	sub	r7, r7, #9
    c270:	e3570017 	cmp	r7, #23
    c274:	9affffde 	bls	c1f4 <_RNvNtNtCscA5RF7Ru5It_7pi_side8language5parse2ws+0x4c>
    c278:	ea000004 	b	c290 <_RNvNtNtCscA5RF7Ru5It_7pi_side8language5parse2ws+0xe8>
    c27c:	e1857606 	orr	r7, r5, r6, lsl #12
    c280:	e2814003 	add	r4, r1, #3
    c284:	e2477009 	sub	r7, r7, #9
    c288:	e3570017 	cmp	r7, #23
    c28c:	9affffd8 	bls	c1f4 <_RNvNtNtCscA5RF7Ru5It_7pi_side8language5parse2ws+0x4c>
    c290:	e3530000 	cmp	r3, #0
    c294:	0a000007 	beq	c2b8 <_RNvNtNtCscA5RF7Ru5It_7pi_side8language5parse2ws+0x110>
    c298:	e1520003 	cmp	r2, r3
    c29c:	9a000004 	bls	c2b4 <_RNvNtNtCscA5RF7Ru5It_7pi_side8language5parse2ws+0x10c>
    c2a0:	e08a1003 	add	r1, sl, r3
    c2a4:	e1d110d0 	ldrsb	r1, [r1]
    c2a8:	e3710041 	cmn	r1, #65	@ 0x41
    c2ac:	ca000001 	bgt	c2b8 <_RNvNtNtCscA5RF7Ru5It_7pi_side8language5parse2ws+0x110>
    c2b0:	ea000052 	b	c400 <_RNvNtNtCscA5RF7Ru5It_7pi_side8language5parse2ws+0x258>
    c2b4:	1a000051 	bne	c400 <_RNvNtNtCscA5RF7Ru5It_7pi_side8language5parse2ws+0x258>
    c2b8:	e08a5003 	add	r5, sl, r3
    c2bc:	e0527003 	subs	r7, r2, r3
    c2c0:	0a000054 	beq	c418 <_RNvNtNtCscA5RF7Ru5It_7pi_side8language5parse2ws+0x270>
    c2c4:	e5d51000 	ldrb	r1, [r5]
    c2c8:	e351003b 	cmp	r1, #59	@ 0x3b
    c2cc:	1a000052 	bne	c41c <_RNvNtNtCscA5RF7Ru5It_7pi_side8language5parse2ws+0x274>
    c2d0:	e1a06000 	mov	r6, r0
    c2d4:	e3a0b000 	mov	fp, #0
    c2d8:	e0420003 	sub	r0, r2, r3
    c2dc:	e58d2004 	str	r2, [sp, #4]
    c2e0:	e58d0008 	str	r0, [sp, #8]
    c2e4:	ea000002 	b	c2f4 <_RNvNtNtCscA5RF7Ru5It_7pi_side8language5parse2ws+0x14c>
    c2e8:	e280b001 	add	fp, r0, #1
    c2ec:	e157000b 	cmp	r7, fp
    c2f0:	3a000033 	bcc	c3c4 <_RNvNtNtCscA5RF7Ru5It_7pi_side8language5parse2ws+0x21c>
    c2f4:	e047200b 	sub	r2, r7, fp
    c2f8:	e085300b 	add	r3, r5, fp
    c2fc:	e3520008 	cmp	r2, #8
    c300:	2a00000f 	bcs	c344 <_RNvNtNtCscA5RF7Ru5It_7pi_side8language5parse2ws+0x19c>
    c304:	e3520000 	cmp	r2, #0
    c308:	0a000013 	beq	c35c <_RNvNtNtCscA5RF7Ru5It_7pi_side8language5parse2ws+0x1b4>
    c30c:	e59d0008 	ldr	r0, [sp, #8]
    c310:	e3a01000 	mov	r1, #0
    c314:	e040000b 	sub	r0, r0, fp
    c318:	e7d34001 	ldrb	r4, [r3, r1]
    c31c:	e354000a 	cmp	r4, #10
    c320:	0a000012 	beq	c370 <_RNvNtNtCscA5RF7Ru5It_7pi_side8language5parse2ws+0x1c8>
    c324:	e2811001 	add	r1, r1, #1
    c328:	e1500001 	cmp	r0, r1
    c32c:	1afffff9 	bne	c318 <_RNvNtNtCscA5RF7Ru5It_7pi_side8language5parse2ws+0x170>
    c330:	e3a00000 	mov	r0, #0
    c334:	e1a01002 	mov	r1, r2
    c338:	e3500001 	cmp	r0, #1
    c33c:	0a00000e 	beq	c37c <_RNvNtNtCscA5RF7Ru5It_7pi_side8language5parse2ws+0x1d4>
    c340:	ea00001f 	b	c3c4 <_RNvNtNtCscA5RF7Ru5It_7pi_side8language5parse2ws+0x21c>
    c344:	e3a0000a 	mov	r0, #10
    c348:	e1a01003 	mov	r1, r3
    c34c:	eb0049ec 	bl	1eb04 <_RNvNtNtCs5HYdw2IoCB0_4core5slice6memchr14memchr_aligned>
    c350:	e3500001 	cmp	r0, #1
    c354:	0a000008 	beq	c37c <_RNvNtNtCscA5RF7Ru5It_7pi_side8language5parse2ws+0x1d4>
    c358:	ea000019 	b	c3c4 <_RNvNtNtCscA5RF7Ru5It_7pi_side8language5parse2ws+0x21c>
    c35c:	e3a01000 	mov	r1, #0
    c360:	e3a00000 	mov	r0, #0
    c364:	e3500001 	cmp	r0, #1
    c368:	0a000003 	beq	c37c <_RNvNtNtCscA5RF7Ru5It_7pi_side8language5parse2ws+0x1d4>
    c36c:	ea000014 	b	c3c4 <_RNvNtNtCscA5RF7Ru5It_7pi_side8language5parse2ws+0x21c>
    c370:	e3a00001 	mov	r0, #1
    c374:	e3500001 	cmp	r0, #1
    c378:	1a000011 	bne	c3c4 <_RNvNtNtCscA5RF7Ru5It_7pi_side8language5parse2ws+0x21c>
    c37c:	e081000b 	add	r0, r1, fp
    c380:	e1500007 	cmp	r0, r7
    c384:	2affffd7 	bcs	c2e8 <_RNvNtNtCscA5RF7Ru5It_7pi_side8language5parse2ws+0x140>
    c388:	e7d51000 	ldrb	r1, [r5, r0]
    c38c:	e351000a 	cmp	r1, #10
    c390:	1affffd4 	bne	c2e8 <_RNvNtNtCscA5RF7Ru5It_7pi_side8language5parse2ws+0x140>
    c394:	e59d3004 	ldr	r3, [sp, #4]
    c398:	e2802001 	add	r2, r0, #1
    c39c:	e1a01007 	mov	r1, r7
    c3a0:	e1a00006 	mov	r0, r6
    c3a4:	e1520007 	cmp	r2, r7
    c3a8:	2a000008 	bcs	c3d0 <_RNvNtNtCscA5RF7Ru5It_7pi_side8language5parse2ws+0x228>
    c3ac:	e0851002 	add	r1, r5, r2
    c3b0:	e1d110d0 	ldrsb	r1, [r1]
    c3b4:	e3710040 	cmn	r1, #64	@ 0x40
    c3b8:	ba000019 	blt	c424 <_RNvNtNtCscA5RF7Ru5It_7pi_side8language5parse2ws+0x27c>
    c3bc:	e1a01002 	mov	r1, r2
    c3c0:	ea000002 	b	c3d0 <_RNvNtNtCscA5RF7Ru5It_7pi_side8language5parse2ws+0x228>
    c3c4:	e1a01007 	mov	r1, r7
    c3c8:	e59d3004 	ldr	r3, [sp, #4]
    c3cc:	e1a00006 	mov	r0, r6
    c3d0:	e08ac003 	add	ip, sl, r3
    c3d4:	e0572001 	subs	r2, r7, r1
    c3d8:	e085a001 	add	sl, r5, r1
    c3dc:	e3a07000 	mov	r7, #0
    c3e0:	1affff79 	bne	c1cc <_RNvNtNtCscA5RF7Ru5It_7pi_side8language5parse2ws+0x24>
    c3e4:	ea000000 	b	c3ec <_RNvNtNtCscA5RF7Ru5It_7pi_side8language5parse2ws+0x244>
    c3e8:	e3a07000 	mov	r7, #0
    c3ec:	e3e01000 	mvn	r1, #0
    c3f0:	e5807008 	str	r7, [r0, #8]
    c3f4:	e8800402 	stm	r0, {r1, sl}
    c3f8:	e28dd00c 	add	sp, sp, #12
    c3fc:	e8bd8ff0 	pop	{r4, r5, r6, r7, r8, r9, sl, fp, pc}
    c400:	e59f0034 	ldr	r0, [pc, #52]	@ c43c <_RNvNtNtCscA5RF7Ru5It_7pi_side8language5parse2ws+0x294>
    c404:	e1a01002 	mov	r1, r2
    c408:	e58d0000 	str	r0, [sp]
    c40c:	e1a0000a 	mov	r0, sl
    c410:	e3a02000 	mov	r2, #0
    c414:	eb004e51 	bl	1fd60 <_RNvNtCs5HYdw2IoCB0_4core3str16slice_error_fail>
    c418:	e3a07000 	mov	r7, #0
    c41c:	e1a0a005 	mov	sl, r5
    c420:	eafffff1 	b	c3ec <_RNvNtNtCscA5RF7Ru5It_7pi_side8language5parse2ws+0x244>
    c424:	e59f0014 	ldr	r0, [pc, #20]	@ c440 <_RNvNtNtCscA5RF7Ru5It_7pi_side8language5parse2ws+0x298>
    c428:	e1a01007 	mov	r1, r7
    c42c:	e58d0000 	str	r0, [sp]
    c430:	e1a00005 	mov	r0, r5
    c434:	e1a03007 	mov	r3, r7
    c438:	eb004e48 	bl	1fd60 <_RNvNtCs5HYdw2IoCB0_4core3str16slice_error_fail>
    c43c:	00022394 	.word	0x00022394
    c440:	000224ec 	.word	0x000224ec

0000c444 <_RNvXs5_NtNtCs5HYdw2IoCB0_4core3str6traitsINtNtNtB9_3ops5range5RangejEINtNtNtB9_5slice5index10SliceIndexeE3get>:
    c444:	e1a0c000 	mov	ip, r0
    c448:	e3a00000 	mov	r0, #0
    c44c:	e35c0000 	cmp	ip, #0
